
fm_synth.elf:     file format elf32-littlearm

Sections:
Idx Name          Size      VMA       LMA       File off  Algn
  0 .isr_vector   0000010c  08000000  08000000  00010000  2**0
                  CONTENTS, ALLOC, LOAD, READONLY, DATA
  1 .text         000020b4  0800010c  0800010c  0001010c  2**2
                  CONTENTS, ALLOC, LOAD, READONLY, CODE
  2 .rodata       00000334  080021c0  080021c0  000121c0  2**2
                  CONTENTS, ALLOC, LOAD, READONLY, DATA
  3 .ARM.extab    00000000  080024f4  080024f4  00020018  2**0
                  CONTENTS
  4 .ARM          00000000  080024f4  080024f4  00020018  2**0
                  CONTENTS
  5 .preinit_array 00000000  080024f4  080024f4  00020018  2**0
                  CONTENTS, ALLOC, LOAD, DATA
  6 .init_array   00000004  080024f4  080024f4  000124f4  2**2
                  CONTENTS, ALLOC, LOAD, DATA
  7 .fini_array   00000004  080024f8  080024f8  000124f8  2**2
                  CONTENTS, ALLOC, LOAD, DATA
  8 .data         00000018  20000000  080024fc  00020000  2**2
                  CONTENTS, ALLOC, LOAD, DATA
  9 .bss          0000031c  20000018  08002514  00020018  2**2
                  ALLOC
 10 ._user_heap_stack 00000604  20000334  08002514  00020334  2**0
                  ALLOC
 11 .ARM.attributes 00000029  00000000  00000000  00020018  2**0
                  CONTENTS, READONLY
 12 .debug_info   00014589  00000000  00000000  00020041  2**0
                  CONTENTS, READONLY, DEBUGGING, OCTETS
 13 .debug_abbrev 00002d0a  00000000  00000000  000345ca  2**0
                  CONTENTS, READONLY, DEBUGGING, OCTETS
 14 .debug_loc    000120af  00000000  00000000  000372d4  2**0
                  CONTENTS, READONLY, DEBUGGING, OCTETS
 15 .debug_aranges 00000b58  00000000  00000000  00049388  2**3
                  CONTENTS, READONLY, DEBUGGING, OCTETS
 16 .debug_ranges 00002248  00000000  00000000  00049ee0  2**3
                  CONTENTS, READONLY, DEBUGGING, OCTETS
 17 .debug_macro  00017788  00000000  00000000  0004c128  2**0
                  CONTENTS, READONLY, DEBUGGING, OCTETS
 18 .debug_line   000173bf  00000000  00000000  000638b0  2**0
                  CONTENTS, READONLY, DEBUGGING, OCTETS
 19 .debug_str    00088214  00000000  00000000  0007ac6f  2**0
                  CONTENTS, READONLY, DEBUGGING, OCTETS
 20 .comment      00000053  00000000  00000000  00102e83  2**0
                  CONTENTS, READONLY
 21 .debug_frame  000028b0  00000000  00000000  00102ed8  2**2
                  CONTENTS, READONLY, DEBUGGING, OCTETS

Disassembly of section .text:

0800010c <__do_global_dtors_aux>:
 800010c:	b510      	push	{r4, lr}
 800010e:	4c05      	ldr	r4, [pc, #20]	; (8000124 <__do_global_dtors_aux+0x18>)
 8000110:	7823      	ldrb	r3, [r4, #0]
 8000112:	b933      	cbnz	r3, 8000122 <__do_global_dtors_aux+0x16>
 8000114:	4b04      	ldr	r3, [pc, #16]	; (8000128 <__do_global_dtors_aux+0x1c>)
 8000116:	b113      	cbz	r3, 800011e <__do_global_dtors_aux+0x12>
 8000118:	4804      	ldr	r0, [pc, #16]	; (800012c <__do_global_dtors_aux+0x20>)
 800011a:	f3af 8000 	nop.w
 800011e:	2301      	movs	r3, #1
 8000120:	7023      	strb	r3, [r4, #0]
 8000122:	bd10      	pop	{r4, pc}
 8000124:	20000018 	.word	0x20000018
 8000128:	00000000 	.word	0x00000000
 800012c:	080021a8 	.word	0x080021a8

08000130 <frame_dummy>:
 8000130:	b508      	push	{r3, lr}
 8000132:	4b03      	ldr	r3, [pc, #12]	; (8000140 <frame_dummy+0x10>)
 8000134:	b11b      	cbz	r3, 800013e <frame_dummy+0xe>
 8000136:	4903      	ldr	r1, [pc, #12]	; (8000144 <frame_dummy+0x14>)
 8000138:	4803      	ldr	r0, [pc, #12]	; (8000148 <frame_dummy+0x18>)
 800013a:	f3af 8000 	nop.w
 800013e:	bd08      	pop	{r3, pc}
 8000140:	00000000 	.word	0x00000000
 8000144:	2000001c 	.word	0x2000001c
 8000148:	080021a8 	.word	0x080021a8

0800014c <init_audio_out>:
 */

#include "audio_out.h"

void init_audio_out(SPI_HandleTypeDef* hspi, TIM_HandleTypeDef *htim) {
	SPI1->CR1 |= SPI_CR1_SPE;
 800014c:	4a06      	ldr	r2, [pc, #24]	; (8000168 <init_audio_out+0x1c>)
void init_audio_out(SPI_HandleTypeDef* hspi, TIM_HandleTypeDef *htim) {
 800014e:	b508      	push	{r3, lr}
	SPI1->CR1 |= SPI_CR1_SPE;
 8000150:	6813      	ldr	r3, [r2, #0]
	HAL_TIM_Base_Start_IT(htim);
 8000152:	4608      	mov	r0, r1
	SPI1->CR1 |= SPI_CR1_SPE;
 8000154:	f043 0340 	orr.w	r3, r3, #64	; 0x40
 8000158:	6013      	str	r3, [r2, #0]
	HAL_TIM_Base_Start_IT(htim);
 800015a:	f001 fcd3 	bl	8001b04 <HAL_TIM_Base_Start_IT>
	output_volume = 0x3800;
 800015e:	f44f 5260 	mov.w	r2, #14336	; 0x3800
 8000162:	4b02      	ldr	r3, [pc, #8]	; (800016c <init_audio_out+0x20>)
 8000164:	801a      	strh	r2, [r3, #0]
}
 8000166:	bd08      	pop	{r3, pc}
 8000168:	40013000 	.word	0x40013000
 800016c:	2000023c 	.word	0x2000023c

08000170 <update_volume>:

void update_volume() {
	GPIOA->BSRR = GPIO_BSRR_BR4;					//pull CS pin low
 8000170:	f44f 1280 	mov.w	r2, #1048576	; 0x100000
void update_volume() {
 8000174:	b510      	push	{r4, lr}
	GPIOA->BSRR = GPIO_BSRR_BR4;					//pull CS pin low
 8000176:	4b0c      	ldr	r3, [pc, #48]	; (80001a8 <update_volume+0x38>)
	SPI1->DR = output_volume;						//write out data to SPI
 8000178:	4c0c      	ldr	r4, [pc, #48]	; (80001ac <update_volume+0x3c>)
	GPIOA->BSRR = GPIO_BSRR_BR4;					//pull CS pin low
 800017a:	611a      	str	r2, [r3, #16]
	SPI1->DR = output_volume;						//write out data to SPI
 800017c:	8822      	ldrh	r2, [r4, #0]
 800017e:	f503 5320 	add.w	r3, r3, #10240	; 0x2800
 8000182:	60da      	str	r2, [r3, #12]
	output_volume = synth_sample();
 8000184:	f000 fcf8 	bl	8000b78 <synth_sample>
 8000188:	b280      	uxth	r0, r0
	if (output_volume > 0x0FFF) {					//max possible volume with 12-bit dac
 800018a:	f5b0 5f80 	cmp.w	r0, #4096	; 0x1000
 800018e:	bf28      	it	cs
 8000190:	f643 70ff 	movwcs	r0, #16383	; 0x3fff
		output_volume = 0x0FFF;
	}
	output_volume |= 0b0011000000000000;			//MCP4921 DAC: bit 12 = on/off, bit 13 = gain 1x/2x
	GPIOA->BSRR = GPIO_BSRR_BS4;					//pull CS pin high
 8000194:	f04f 0210 	mov.w	r2, #16
 8000198:	4b03      	ldr	r3, [pc, #12]	; (80001a8 <update_volume+0x38>)
 800019a:	bf38      	it	cc
 800019c:	f440 5040 	orrcc.w	r0, r0, #12288	; 0x3000
	output_volume |= 0b0011000000000000;			//MCP4921 DAC: bit 12 = on/off, bit 13 = gain 1x/2x
 80001a0:	8020      	strh	r0, [r4, #0]
	GPIOA->BSRR = GPIO_BSRR_BS4;					//pull CS pin high
 80001a2:	611a      	str	r2, [r3, #16]
}
 80001a4:	bd10      	pop	{r4, pc}
 80001a6:	bf00      	nop
 80001a8:	40010800 	.word	0x40010800
 80001ac:	2000023c 	.word	0x2000023c

080001b0 <SystemClock_Config>:
/**
  * @brief System Clock Configuration
  * @retval None
  */
void SystemClock_Config(void)
{
 80001b0:	e92d 43d0 	stmdb	sp!, {r4, r6, r7, r8, r9, lr}
  RCC_OscInitTypeDef RCC_OscInitStruct = {0};
 80001b4:	2300      	movs	r3, #0
  RCC_ClkInitTypeDef RCC_ClkInitStruct = {0};

  /** Initializes the RCC Oscillators according to the specified parameters
  * in the RCC_OscInitTypeDef structure.
  */
  RCC_OscInitStruct.OscillatorType = RCC_OSCILLATORTYPE_HSI;
 80001b6:	2402      	movs	r4, #2
  RCC_OscInitStruct.HSIState = RCC_HSI_ON;
 80001b8:	2601      	movs	r6, #1
 80001ba:	2710      	movs	r7, #16
  RCC_OscInitStruct.HSICalibrationValue = RCC_HSICALIBRATION_DEFAULT;
  RCC_OscInitStruct.PLL.PLLState = RCC_PLL_ON;
  RCC_OscInitStruct.PLL.PLLSource = RCC_PLLSOURCE_HSI_DIV2;
  RCC_OscInitStruct.PLL.PLLMUL = RCC_PLL_MUL16;
 80001bc:	f44f 1260 	mov.w	r2, #3670016	; 0x380000
{
 80001c0:	b090      	sub	sp, #64	; 0x40
  if (HAL_RCC_OscConfig(&RCC_OscInitStruct) != HAL_OK)
 80001c2:	a806      	add	r0, sp, #24
  RCC_OscInitTypeDef RCC_OscInitStruct = {0};
 80001c4:	e9cd 3308 	strd	r3, r3, [sp, #32]
  RCC_ClkInitTypeDef RCC_ClkInitStruct = {0};
 80001c8:	e9cd 3301 	strd	r3, r3, [sp, #4]
 80001cc:	e9cd 3303 	strd	r3, r3, [sp, #12]
  RCC_OscInitStruct.HSIState = RCC_HSI_ON;
 80001d0:	e9cd 670a 	strd	r6, r7, [sp, #40]	; 0x28
  RCC_OscInitTypeDef RCC_OscInitStruct = {0};
 80001d4:	9307      	str	r3, [sp, #28]
  RCC_ClkInitTypeDef RCC_ClkInitStruct = {0};
 80001d6:	9300      	str	r3, [sp, #0]
  RCC_OscInitStruct.PLL.PLLSource = RCC_PLLSOURCE_HSI_DIV2;
 80001d8:	930e      	str	r3, [sp, #56]	; 0x38
  RCC_OscInitTypeDef RCC_OscInitStruct = {0};
 80001da:	930c      	str	r3, [sp, #48]	; 0x30
  RCC_OscInitStruct.OscillatorType = RCC_OSCILLATORTYPE_HSI;
 80001dc:	9406      	str	r4, [sp, #24]
  RCC_OscInitStruct.PLL.PLLState = RCC_PLL_ON;
 80001de:	940d      	str	r4, [sp, #52]	; 0x34
  RCC_OscInitStruct.PLL.PLLMUL = RCC_PLL_MUL16;
 80001e0:	920f      	str	r2, [sp, #60]	; 0x3c
  if (HAL_RCC_OscConfig(&RCC_OscInitStruct) != HAL_OK)
 80001e2:	f001 f8e3 	bl	80013ac <HAL_RCC_OscConfig>
 80001e6:	b108      	cbz	r0, 80001ec <SystemClock_Config+0x3c>
  \details Disables IRQ interrupts by setting the I-bit in the CPSR.
           Can only be executed in Privileged modes.
 */
__STATIC_FORCEINLINE void __disable_irq(void)
{
  __ASM volatile ("cpsid i" : : : "memory");
 80001e8:	b672      	cpsid	i
void Error_Handler(void)
{
  /* USER CODE BEGIN Error_Handler_Debug */
  /* User can add his own implementation to report the HAL error return state */
  __disable_irq();
  while (1)
 80001ea:	e7fe      	b.n	80001ea <SystemClock_Config+0x3a>
  RCC_ClkInitStruct.APB1CLKDivider = RCC_HCLK_DIV2;
 80001ec:	4603      	mov	r3, r0
  RCC_ClkInitStruct.ClockType = RCC_CLOCKTYPE_HCLK|RCC_CLOCKTYPE_SYSCLK
 80001ee:	f04f 080f 	mov.w	r8, #15
 80001f2:	f04f 0902 	mov.w	r9, #2
 80001f6:	2600      	movs	r6, #0
 80001f8:	f44f 6780 	mov.w	r7, #1024	; 0x400
  if (HAL_RCC_ClockConfig(&RCC_ClkInitStruct, FLASH_LATENCY_2) != HAL_OK)
 80001fc:	4621      	mov	r1, r4
 80001fe:	4668      	mov	r0, sp
  RCC_ClkInitStruct.ClockType = RCC_CLOCKTYPE_HCLK|RCC_CLOCKTYPE_SYSCLK
 8000200:	e9cd 8900 	strd	r8, r9, [sp]
 8000204:	e9cd 6702 	strd	r6, r7, [sp, #8]
  RCC_ClkInitStruct.APB2CLKDivider = RCC_HCLK_DIV1;
 8000208:	9304      	str	r3, [sp, #16]
  if (HAL_RCC_ClockConfig(&RCC_ClkInitStruct, FLASH_LATENCY_2) != HAL_OK)
 800020a:	f001 facf 	bl	80017ac <HAL_RCC_ClockConfig>
 800020e:	b108      	cbz	r0, 8000214 <SystemClock_Config+0x64>
 8000210:	b672      	cpsid	i
  while (1)
 8000212:	e7fe      	b.n	8000212 <SystemClock_Config+0x62>
}
 8000214:	b010      	add	sp, #64	; 0x40
 8000216:	e8bd 83d0 	ldmia.w	sp!, {r4, r6, r7, r8, r9, pc}
 800021a:	bf00      	nop

0800021c <main>:
  GPIO_InitTypeDef GPIO_InitStruct = {0};
 800021c:	2400      	movs	r4, #0
{
 800021e:	b580      	push	{r7, lr}
 8000220:	b088      	sub	sp, #32
  HAL_Init();
 8000222:	f000 fea9 	bl	8000f78 <HAL_Init>
  SystemClock_Config();
 8000226:	f7ff ffc3 	bl	80001b0 <SystemClock_Config>
  GPIO_InitTypeDef GPIO_InitStruct = {0};
 800022a:	e9cd 4404 	strd	r4, r4, [sp, #16]
 800022e:	e9cd 4406 	strd	r4, r4, [sp, #24]
  __HAL_RCC_GPIOA_CLK_ENABLE();
 8000232:	4b45      	ldr	r3, [pc, #276]	; (8000348 <main+0x12c>)
  HAL_GPIO_WritePin(GPIOA, GPIO_PIN_4, GPIO_PIN_SET);
 8000234:	2201      	movs	r2, #1
  __HAL_RCC_GPIOA_CLK_ENABLE();
 8000236:	6999      	ldr	r1, [r3, #24]
  HAL_GPIO_WritePin(GPIOA, GPIO_PIN_4, GPIO_PIN_SET);
 8000238:	4844      	ldr	r0, [pc, #272]	; (800034c <main+0x130>)
  __HAL_RCC_GPIOA_CLK_ENABLE();
 800023a:	f041 0104 	orr.w	r1, r1, #4
 800023e:	6199      	str	r1, [r3, #24]
 8000240:	699b      	ldr	r3, [r3, #24]
  HAL_GPIO_WritePin(GPIOA, GPIO_PIN_4, GPIO_PIN_SET);
 8000242:	2110      	movs	r1, #16
  __HAL_RCC_GPIOA_CLK_ENABLE();
 8000244:	f003 0304 	and.w	r3, r3, #4
 8000248:	9301      	str	r3, [sp, #4]
 800024a:	9b01      	ldr	r3, [sp, #4]
  HAL_GPIO_WritePin(GPIOA, GPIO_PIN_4, GPIO_PIN_SET);
 800024c:	f001 f8a0 	bl	8001390 <HAL_GPIO_WritePin>
  HAL_GPIO_WritePin(GPIOA, GPIO_PIN_8, GPIO_PIN_RESET);
 8000250:	4622      	mov	r2, r4
 8000252:	f44f 7180 	mov.w	r1, #256	; 0x100
 8000256:	483d      	ldr	r0, [pc, #244]	; (800034c <main+0x130>)
 8000258:	f001 f89a 	bl	8001390 <HAL_GPIO_WritePin>
  GPIO_InitStruct.Pin = GPIO_PIN_4|GPIO_PIN_8;
 800025c:	f44f 7688 	mov.w	r6, #272	; 0x110
 8000260:	2200      	movs	r2, #0
 8000262:	2302      	movs	r3, #2
 8000264:	2701      	movs	r7, #1
  HAL_GPIO_Init(GPIOA, &GPIO_InitStruct);
 8000266:	4839      	ldr	r0, [pc, #228]	; (800034c <main+0x130>)
 8000268:	a904      	add	r1, sp, #16
  GPIO_InitStruct.Pin = GPIO_PIN_4|GPIO_PIN_8;
 800026a:	e9cd 2306 	strd	r2, r3, [sp, #24]
 800026e:	e9cd 6704 	strd	r6, r7, [sp, #16]
  HAL_GPIO_Init(GPIOA, &GPIO_InitStruct);
 8000272:	f000 ff81 	bl	8001178 <HAL_GPIO_Init>
  huart1.Init.BaudRate = 31250;
 8000276:	f647 2212 	movw	r2, #31250	; 0x7a12
  huart1.Init.Mode = UART_MODE_RX;
 800027a:	2304      	movs	r3, #4
  huart1.Instance = USART1;
 800027c:	4834      	ldr	r0, [pc, #208]	; (8000350 <main+0x134>)
 800027e:	4935      	ldr	r1, [pc, #212]	; (8000354 <main+0x138>)
  huart1.Init.StopBits = UART_STOPBITS_1;
 8000280:	e9c0 4402 	strd	r4, r4, [r0, #8]
  huart1.Init.OverSampling = UART_OVERSAMPLING_16;
 8000284:	e9c0 4406 	strd	r4, r4, [r0, #24]
  huart1.Init.BaudRate = 31250;
 8000288:	e9c0 1200 	strd	r1, r2, [r0]
  huart1.Init.Parity = UART_PARITY_NONE;
 800028c:	6104      	str	r4, [r0, #16]
  huart1.Init.Mode = UART_MODE_RX;
 800028e:	6143      	str	r3, [r0, #20]
  if (HAL_UART_Init(&huart1) != HAL_OK)
 8000290:	f001 fd3a 	bl	8001d08 <HAL_UART_Init>
 8000294:	b108      	cbz	r0, 800029a <main+0x7e>
 8000296:	b672      	cpsid	i
  while (1)
 8000298:	e7fe      	b.n	8000298 <main+0x7c>
  TIM_ClockConfigTypeDef sClockSourceConfig = {0};
 800029a:	4603      	mov	r3, r0
  htim2.Instance = TIM2;
 800029c:	f04f 4180 	mov.w	r1, #1073741824	; 0x40000000
  htim2.Init.Period = 1333-1;
 80002a0:	f240 5234 	movw	r2, #1332	; 0x534
  htim2.Instance = TIM2;
 80002a4:	4c2c      	ldr	r4, [pc, #176]	; (8000358 <main+0x13c>)
  TIM_ClockConfigTypeDef sClockSourceConfig = {0};
 80002a6:	e9cd 0004 	strd	r0, r0, [sp, #16]
 80002aa:	e9cd 0006 	strd	r0, r0, [sp, #24]
  TIM_MasterConfigTypeDef sMasterConfig = {0};
 80002ae:	9002      	str	r0, [sp, #8]
  if (HAL_TIM_Base_Init(&htim2) != HAL_OK)
 80002b0:	4620      	mov	r0, r4
  htim2.Init.CounterMode = TIM_COUNTERMODE_UP;
 80002b2:	e9c4 3301 	strd	r3, r3, [r4, #4]
  htim2.Instance = TIM2;
 80002b6:	6021      	str	r1, [r4, #0]
  htim2.Init.ClockDivision = TIM_CLOCKDIVISION_DIV1;
 80002b8:	6123      	str	r3, [r4, #16]
  htim2.Init.AutoReloadPreload = TIM_AUTORELOAD_PRELOAD_DISABLE;
 80002ba:	61a3      	str	r3, [r4, #24]
  htim2.Init.Period = 1333-1;
 80002bc:	60e2      	str	r2, [r4, #12]
  TIM_MasterConfigTypeDef sMasterConfig = {0};
 80002be:	9303      	str	r3, [sp, #12]
  if (HAL_TIM_Base_Init(&htim2) != HAL_OK)
 80002c0:	f001 fbbc 	bl	8001a3c <HAL_TIM_Base_Init>
 80002c4:	b108      	cbz	r0, 80002ca <main+0xae>
 80002c6:	b672      	cpsid	i
  while (1)
 80002c8:	e7fe      	b.n	80002c8 <main+0xac>
  sClockSourceConfig.ClockSource = TIM_CLOCKSOURCE_INTERNAL;
 80002ca:	f44f 5380 	mov.w	r3, #4096	; 0x1000
  if (HAL_TIM_ConfigClockSource(&htim2, &sClockSourceConfig) != HAL_OK)
 80002ce:	4620      	mov	r0, r4
 80002d0:	a904      	add	r1, sp, #16
  sClockSourceConfig.ClockSource = TIM_CLOCKSOURCE_INTERNAL;
 80002d2:	9304      	str	r3, [sp, #16]
  if (HAL_TIM_ConfigClockSource(&htim2, &sClockSourceConfig) != HAL_OK)
 80002d4:	f001 fc42 	bl	8001b5c <HAL_TIM_ConfigClockSource>
 80002d8:	b108      	cbz	r0, 80002de <main+0xc2>
 80002da:	b672      	cpsid	i
  while (1)
 80002dc:	e7fe      	b.n	80002dc <main+0xc0>
  sMasterConfig.MasterOutputTrigger = TIM_TRGO_RESET;
 80002de:	2300      	movs	r3, #0
 80002e0:	2200      	movs	r2, #0
  if (HAL_TIMEx_MasterConfigSynchronization(&htim2, &sMasterConfig) != HAL_OK)
 80002e2:	4620      	mov	r0, r4
 80002e4:	a902      	add	r1, sp, #8
  sMasterConfig.MasterOutputTrigger = TIM_TRGO_RESET;
 80002e6:	e9cd 2302 	strd	r2, r3, [sp, #8]
  if (HAL_TIMEx_MasterConfigSynchronization(&htim2, &sMasterConfig) != HAL_OK)
 80002ea:	f001 fcdb 	bl	8001ca4 <HAL_TIMEx_MasterConfigSynchronization>
 80002ee:	4603      	mov	r3, r0
 80002f0:	b9d0      	cbnz	r0, 8000328 <main+0x10c>
  hspi1.Init.Mode = SPI_MODE_MASTER;
 80002f2:	f44f 7782 	mov.w	r7, #260	; 0x104
  hspi1.Init.DataSize = SPI_DATASIZE_16BIT;
 80002f6:	f44f 6500 	mov.w	r5, #2048	; 0x800
  hspi1.Init.NSS = SPI_NSS_SOFT;
 80002fa:	f44f 7400 	mov.w	r4, #512	; 0x200
  hspi1.Init.BaudRatePrescaler = SPI_BAUDRATEPRESCALER_4;
 80002fe:	2108      	movs	r1, #8
  hspi1.Init.CRCPolynomial = 10;
 8000300:	220a      	movs	r2, #10
  hspi1.Instance = SPI1;
 8000302:	4816      	ldr	r0, [pc, #88]	; (800035c <main+0x140>)
 8000304:	4e16      	ldr	r6, [pc, #88]	; (8000360 <main+0x144>)
  hspi1.Init.Direction = SPI_DIRECTION_2LINES;
 8000306:	e9c0 7301 	strd	r7, r3, [r0, #4]
  hspi1.Init.CLKPhase = SPI_PHASE_1EDGE;
 800030a:	e9c0 3304 	strd	r3, r3, [r0, #16]
  hspi1.Init.TIMode = SPI_TIMODE_DISABLE;
 800030e:	e9c0 3308 	strd	r3, r3, [r0, #32]
  hspi1.Init.BaudRatePrescaler = SPI_BAUDRATEPRESCALER_4;
 8000312:	e9c0 4106 	strd	r4, r1, [r0, #24]
  hspi1.Init.CRCCalculation = SPI_CRCCALCULATION_DISABLE;
 8000316:	6283      	str	r3, [r0, #40]	; 0x28
  hspi1.Instance = SPI1;
 8000318:	6006      	str	r6, [r0, #0]
  hspi1.Init.DataSize = SPI_DATASIZE_16BIT;
 800031a:	60c5      	str	r5, [r0, #12]
  hspi1.Init.CRCPolynomial = 10;
 800031c:	62c2      	str	r2, [r0, #44]	; 0x2c
  if (HAL_SPI_Init(&hspi1) != HAL_OK)
 800031e:	f001 fb33 	bl	8001988 <HAL_SPI_Init>
 8000322:	b118      	cbz	r0, 800032c <main+0x110>
 8000324:	b672      	cpsid	i
  while (1)
 8000326:	e7fe      	b.n	8000326 <main+0x10a>
 8000328:	b672      	cpsid	i
 800032a:	e7fe      	b.n	800032a <main+0x10e>
  init_midi(midi_uart);
 800032c:	4b0d      	ldr	r3, [pc, #52]	; (8000364 <main+0x148>)
 800032e:	6818      	ldr	r0, [r3, #0]
 8000330:	f000 f830 	bl	8000394 <init_midi>
  init_synth();
 8000334:	f000 f970 	bl	8000618 <init_synth>
  init_audio_out(audio_spi, audio_tim);
 8000338:	4a0b      	ldr	r2, [pc, #44]	; (8000368 <main+0x14c>)
 800033a:	4b0c      	ldr	r3, [pc, #48]	; (800036c <main+0x150>)
 800033c:	6811      	ldr	r1, [r2, #0]
 800033e:	6818      	ldr	r0, [r3, #0]
 8000340:	f7ff ff04 	bl	800014c <init_audio_out>
	__NOP();
 8000344:	bf00      	nop
  while (1)
 8000346:	e7fd      	b.n	8000344 <main+0x128>
 8000348:	40021000 	.word	0x40021000
 800034c:	40010800 	.word	0x40010800
 8000350:	20000244 	.word	0x20000244
 8000354:	40013800 	.word	0x40013800
 8000358:	200002e4 	.word	0x200002e4
 800035c:	2000028c 	.word	0x2000028c
 8000360:	40013000 	.word	0x40013000
 8000364:	20000008 	.word	0x20000008
 8000368:	20000004 	.word	0x20000004
 800036c:	20000000 	.word	0x20000000

08000370 <HAL_UART_RxCpltCallback>:
	process_midi_byte(huart);
 8000370:	f000 b81e 	b.w	80003b0 <process_midi_byte>

08000374 <sample>:
void sample() {
 8000374:	b508      	push	{r3, lr}
	TIM2->SR = 0;
 8000376:	2200      	movs	r2, #0
 8000378:	f04f 4380 	mov.w	r3, #1073741824	; 0x40000000
	HAL_GPIO_TogglePin(GPIOA, GPIO_PIN_8);
 800037c:	f44f 7180 	mov.w	r1, #256	; 0x100
	TIM2->SR = 0;
 8000380:	611a      	str	r2, [r3, #16]
	HAL_GPIO_TogglePin(GPIOA, GPIO_PIN_8);
 8000382:	4803      	ldr	r0, [pc, #12]	; (8000390 <sample+0x1c>)
 8000384:	f001 f808 	bl	8001398 <HAL_GPIO_TogglePin>
}
 8000388:	e8bd 4008 	ldmia.w	sp!, {r3, lr}
	update_volume();
 800038c:	f7ff bef0 	b.w	8000170 <update_volume>
 8000390:	40010800 	.word	0x40010800

08000394 <init_midi>:
 *      Author: Tennyson Cheng
 */

#include "midi.h"

void init_midi(UART_HandleTypeDef* huart) {
 8000394:	b410      	push	{r4}
	data[0] = -1;
 8000396:	24ff      	movs	r4, #255	; 0xff
 8000398:	4b03      	ldr	r3, [pc, #12]	; (80003a8 <init_midi+0x14>)
	data[1] = -1;
	HAL_UART_Receive_IT(huart, &midi_in, 1);
 800039a:	2201      	movs	r2, #1
	data[0] = -1;
 800039c:	701c      	strb	r4, [r3, #0]
	data[1] = -1;
 800039e:	705c      	strb	r4, [r3, #1]
	HAL_UART_Receive_IT(huart, &midi_in, 1);
 80003a0:	4902      	ldr	r1, [pc, #8]	; (80003ac <init_midi+0x18>)
}
 80003a2:	bc10      	pop	{r4}
	HAL_UART_Receive_IT(huart, &midi_in, 1);
 80003a4:	f001 bd1a 	b.w	8001ddc <HAL_UART_Receive_IT>
 80003a8:	20000288 	.word	0x20000288
 80003ac:	2000032c 	.word	0x2000032c

080003b0 <process_midi_byte>:

void process_midi_byte(UART_HandleTypeDef* huart) {
 80003b0:	b510      	push	{r4, lr}
	HAL_UART_Receive_IT(huart, &midi_in, 1);	//re-enable interrupt for next byte
 80003b2:	4c24      	ldr	r4, [pc, #144]	; (8000444 <process_midi_byte+0x94>)
 80003b4:	2201      	movs	r2, #1
 80003b6:	4621      	mov	r1, r4
 80003b8:	f001 fd10 	bl	8001ddc <HAL_UART_Receive_IT>
	if ((midi_in & 0x80) == 0x80) {				//if byte received was status byte
 80003bc:	f994 3000 	ldrsb.w	r3, [r4]
 80003c0:	7822      	ldrb	r2, [r4, #0]
 80003c2:	2b00      	cmp	r3, #0
 80003c4:	db26      	blt.n	8000414 <process_midi_byte+0x64>
		status = midi_in;
		data[0] = -1;
		data[1] = -1;
	}
	else {										//if byte received was data byte
		switch (status) {
 80003c6:	4b20      	ldr	r3, [pc, #128]	; (8000448 <process_midi_byte+0x98>)
 80003c8:	781b      	ldrb	r3, [r3, #0]
 80003ca:	2bc0      	cmp	r3, #192	; 0xc0
 80003cc:	d01f      	beq.n	800040e <process_midi_byte+0x5e>
 80003ce:	d818      	bhi.n	8000402 <process_midi_byte+0x52>
 80003d0:	2ba0      	cmp	r3, #160	; 0xa0
 80003d2:	d002      	beq.n	80003da <process_midi_byte+0x2a>
 80003d4:	d907      	bls.n	80003e6 <process_midi_byte+0x36>
 80003d6:	2bb0      	cmp	r3, #176	; 0xb0
 80003d8:	d129      	bne.n	800042e <process_midi_byte+0x7e>
		case 0xD0:									//channel pressure (unimplemented)
			data[0] = midi_in;
			channel_pressure();
			break;
		case 0xE0:									//pitch bend
			if (data[0] == (uint8_t)-1) {
 80003da:	4b1c      	ldr	r3, [pc, #112]	; (800044c <process_midi_byte+0x9c>)
 80003dc:	7819      	ldrb	r1, [r3, #0]
 80003de:	29ff      	cmp	r1, #255	; 0xff
 80003e0:	d023      	beq.n	800042a <process_midi_byte+0x7a>
				data[0] = midi_in;
			}
			else {
				data[1] = midi_in;
 80003e2:	705a      	strb	r2, [r3, #1]
			break;
		default:
			__NOP();
		}
	}
}
 80003e4:	bd10      	pop	{r4, pc}
		switch (status) {
 80003e6:	2b80      	cmp	r3, #128	; 0x80
 80003e8:	d01b      	beq.n	8000422 <process_midi_byte+0x72>
 80003ea:	2b90      	cmp	r3, #144	; 0x90
 80003ec:	d11f      	bne.n	800042e <process_midi_byte+0x7e>
			if (data[0] == (uint8_t)-1) {
 80003ee:	4b17      	ldr	r3, [pc, #92]	; (800044c <process_midi_byte+0x9c>)
 80003f0:	7818      	ldrb	r0, [r3, #0]
 80003f2:	28ff      	cmp	r0, #255	; 0xff
 80003f4:	d019      	beq.n	800042a <process_midi_byte+0x7a>
				data[1] = midi_in;
 80003f6:	705a      	strb	r2, [r3, #1]
				if (data[1] == 0) {					//some midi devices send velocity 0 to turn off notes
 80003f8:	bb02      	cbnz	r2, 800043c <process_midi_byte+0x8c>
}
 80003fa:	e8bd 4010 	ldmia.w	sp!, {r4, lr}

void note_off() {
	delete_voice(data[0]);
 80003fe:	f000 bb4f 	b.w	8000aa0 <delete_voice>
		switch (status) {
 8000402:	2be0      	cmp	r3, #224	; 0xe0
 8000404:	d0e9      	beq.n	80003da <process_midi_byte+0x2a>
 8000406:	2bf0      	cmp	r3, #240	; 0xf0
 8000408:	d0ec      	beq.n	80003e4 <process_midi_byte+0x34>
 800040a:	2bd0      	cmp	r3, #208	; 0xd0
 800040c:	d10f      	bne.n	800042e <process_midi_byte+0x7e>
			data[0] = midi_in;
 800040e:	4b0f      	ldr	r3, [pc, #60]	; (800044c <process_midi_byte+0x9c>)
 8000410:	701a      	strb	r2, [r3, #0]
}
 8000412:	bd10      	pop	{r4, pc}
		data[0] = -1;
 8000414:	21ff      	movs	r1, #255	; 0xff
 8000416:	4b0d      	ldr	r3, [pc, #52]	; (800044c <process_midi_byte+0x9c>)
		status = midi_in;
 8000418:	480b      	ldr	r0, [pc, #44]	; (8000448 <process_midi_byte+0x98>)
		data[0] = -1;
 800041a:	7019      	strb	r1, [r3, #0]
		data[1] = -1;
 800041c:	7059      	strb	r1, [r3, #1]
		status = midi_in;
 800041e:	7002      	strb	r2, [r0, #0]
}
 8000420:	bd10      	pop	{r4, pc}
			if (data[0] == (uint8_t)-1) {
 8000422:	4b0a      	ldr	r3, [pc, #40]	; (800044c <process_midi_byte+0x9c>)
 8000424:	7818      	ldrb	r0, [r3, #0]
 8000426:	28ff      	cmp	r0, #255	; 0xff
 8000428:	d103      	bne.n	8000432 <process_midi_byte+0x82>
				data[0] = midi_in;
 800042a:	701a      	strb	r2, [r3, #0]
}
 800042c:	bd10      	pop	{r4, pc}
			__NOP();
 800042e:	bf00      	nop
}
 8000430:	bd10      	pop	{r4, pc}
				data[1] = midi_in;
 8000432:	705a      	strb	r2, [r3, #1]
}
 8000434:	e8bd 4010 	ldmia.w	sp!, {r4, lr}
	delete_voice(data[0]);
 8000438:	f000 bb32 	b.w	8000aa0 <delete_voice>
}
 800043c:	e8bd 4010 	ldmia.w	sp!, {r4, lr}
}

void note_on() {
	add_voice(data[0]);
 8000440:	f000 baa0 	b.w	8000984 <add_voice>
 8000444:	2000032c 	.word	0x2000032c
 8000448:	2000032d 	.word	0x2000032d
 800044c:	20000288 	.word	0x20000288

08000450 <note_to_freq>:
 */

#include "phase.h"

uint16_t note_to_freq(uint8_t note_value) {
	return NOTE_FREQ_TABLE[note_value];
 8000450:	4b01      	ldr	r3, [pc, #4]	; (8000458 <note_to_freq+0x8>)
}
 8000452:	f833 0010 	ldrh.w	r0, [r3, r0, lsl #1]
 8000456:	4770      	bx	lr
 8000458:	080021c8 	.word	0x080021c8

0800045c <calculate_delta>:

uint16_t calculate_delta(uint16_t freq) {
	uint32_t total_samples = TABLE_SAMPLE_SIZE * freq;		//# of samples to map one second of the target frequency
	total_samples <<= 8;									//shift left 8 bits for fractional bits (8 LSB)
	uint16_t delta = total_samples / SAMPLING_FREQ;			//8 MSB = integer, 8 LSB = fractional. integer represents index in wave table.
 800045c:	4b03      	ldr	r3, [pc, #12]	; (800046c <calculate_delta+0x10>)
	total_samples <<= 8;									//shift left 8 bits for fractional bits (8 LSB)
 800045e:	0400      	lsls	r0, r0, #16
	uint16_t delta = total_samples / SAMPLING_FREQ;			//8 MSB = integer, 8 LSB = fractional. integer represents index in wave table.
 8000460:	fba3 3000 	umull	r3, r0, r3, r0
	return delta;
}
 8000464:	f3c0 208f 	ubfx	r0, r0, #10, #16
 8000468:	4770      	bx	lr
 800046a:	bf00      	nop
 800046c:	057619f1 	.word	0x057619f1

08000470 <HAL_MspInit>:
{
  /* USER CODE BEGIN MspInit 0 */

  /* USER CODE END MspInit 0 */

  __HAL_RCC_AFIO_CLK_ENABLE();
 8000470:	4b0e      	ldr	r3, [pc, #56]	; (80004ac <HAL_MspInit+0x3c>)
{
 8000472:	b082      	sub	sp, #8
  __HAL_RCC_AFIO_CLK_ENABLE();
 8000474:	699a      	ldr	r2, [r3, #24]

  /* System interrupt init*/

  /** NOJTAG: JTAG-DP Disabled and SW-DP Enabled
  */
  __HAL_AFIO_REMAP_SWJ_NOJTAG();
 8000476:	490e      	ldr	r1, [pc, #56]	; (80004b0 <HAL_MspInit+0x40>)
  __HAL_RCC_AFIO_CLK_ENABLE();
 8000478:	f042 0201 	orr.w	r2, r2, #1
 800047c:	619a      	str	r2, [r3, #24]
 800047e:	699a      	ldr	r2, [r3, #24]
 8000480:	f002 0201 	and.w	r2, r2, #1
 8000484:	9200      	str	r2, [sp, #0]
 8000486:	9a00      	ldr	r2, [sp, #0]
  __HAL_RCC_PWR_CLK_ENABLE();
 8000488:	69da      	ldr	r2, [r3, #28]
 800048a:	f042 5280 	orr.w	r2, r2, #268435456	; 0x10000000
 800048e:	61da      	str	r2, [r3, #28]
 8000490:	69db      	ldr	r3, [r3, #28]
 8000492:	f003 5380 	and.w	r3, r3, #268435456	; 0x10000000
 8000496:	9301      	str	r3, [sp, #4]
 8000498:	9b01      	ldr	r3, [sp, #4]
  __HAL_AFIO_REMAP_SWJ_NOJTAG();
 800049a:	684b      	ldr	r3, [r1, #4]
 800049c:	f023 63e0 	bic.w	r3, r3, #117440512	; 0x7000000
 80004a0:	f043 7300 	orr.w	r3, r3, #33554432	; 0x2000000
 80004a4:	604b      	str	r3, [r1, #4]

  /* USER CODE BEGIN MspInit 1 */

  /* USER CODE END MspInit 1 */
}
 80004a6:	b002      	add	sp, #8
 80004a8:	4770      	bx	lr
 80004aa:	bf00      	nop
 80004ac:	40021000 	.word	0x40021000
 80004b0:	40010000 	.word	0x40010000

080004b4 <HAL_SPI_MspInit>:
* @param hspi: SPI handle pointer
* @retval None
*/
void HAL_SPI_MspInit(SPI_HandleTypeDef* hspi)
{
  GPIO_InitTypeDef GPIO_InitStruct = {0};
 80004b4:	2300      	movs	r3, #0
{
 80004b6:	b570      	push	{r4, r5, r6, lr}
  if(hspi->Instance==SPI1)
 80004b8:	6801      	ldr	r1, [r0, #0]
 80004ba:	4a16      	ldr	r2, [pc, #88]	; (8000514 <HAL_SPI_MspInit+0x60>)
{
 80004bc:	b086      	sub	sp, #24
  if(hspi->Instance==SPI1)
 80004be:	4291      	cmp	r1, r2
  GPIO_InitTypeDef GPIO_InitStruct = {0};
 80004c0:	e9cd 3302 	strd	r3, r3, [sp, #8]
 80004c4:	e9cd 3304 	strd	r3, r3, [sp, #16]
  if(hspi->Instance==SPI1)
 80004c8:	d001      	beq.n	80004ce <HAL_SPI_MspInit+0x1a>
  /* USER CODE BEGIN SPI1_MspInit 1 */

  /* USER CODE END SPI1_MspInit 1 */
  }

}
 80004ca:	b006      	add	sp, #24
 80004cc:	bd70      	pop	{r4, r5, r6, pc}
    GPIO_InitStruct.Pin = GPIO_PIN_5|GPIO_PIN_7;
 80004ce:	24a0      	movs	r4, #160	; 0xa0
 80004d0:	2502      	movs	r5, #2
    GPIO_InitStruct.Speed = GPIO_SPEED_FREQ_HIGH;
 80004d2:	2603      	movs	r6, #3
    __HAL_RCC_SPI1_CLK_ENABLE();
 80004d4:	f103 4380 	add.w	r3, r3, #1073741824	; 0x40000000
 80004d8:	f503 3304 	add.w	r3, r3, #135168	; 0x21000
 80004dc:	699a      	ldr	r2, [r3, #24]
    HAL_GPIO_Init(GPIOA, &GPIO_InitStruct);
 80004de:	480e      	ldr	r0, [pc, #56]	; (8000518 <HAL_SPI_MspInit+0x64>)
    __HAL_RCC_SPI1_CLK_ENABLE();
 80004e0:	f442 5280 	orr.w	r2, r2, #4096	; 0x1000
 80004e4:	619a      	str	r2, [r3, #24]
 80004e6:	699a      	ldr	r2, [r3, #24]
    HAL_GPIO_Init(GPIOA, &GPIO_InitStruct);
 80004e8:	a902      	add	r1, sp, #8
    __HAL_RCC_SPI1_CLK_ENABLE();
 80004ea:	f402 5280 	and.w	r2, r2, #4096	; 0x1000
 80004ee:	9200      	str	r2, [sp, #0]
 80004f0:	9a00      	ldr	r2, [sp, #0]
    __HAL_RCC_GPIOA_CLK_ENABLE();
 80004f2:	699a      	ldr	r2, [r3, #24]
 80004f4:	f042 0204 	orr.w	r2, r2, #4
 80004f8:	619a      	str	r2, [r3, #24]
 80004fa:	699b      	ldr	r3, [r3, #24]
    GPIO_InitStruct.Pin = GPIO_PIN_5|GPIO_PIN_7;
 80004fc:	e9cd 4502 	strd	r4, r5, [sp, #8]
    __HAL_RCC_GPIOA_CLK_ENABLE();
 8000500:	f003 0304 	and.w	r3, r3, #4
 8000504:	9301      	str	r3, [sp, #4]
 8000506:	9b01      	ldr	r3, [sp, #4]
    GPIO_InitStruct.Speed = GPIO_SPEED_FREQ_HIGH;
 8000508:	9605      	str	r6, [sp, #20]
    HAL_GPIO_Init(GPIOA, &GPIO_InitStruct);
 800050a:	f000 fe35 	bl	8001178 <HAL_GPIO_Init>
}
 800050e:	b006      	add	sp, #24
 8000510:	bd70      	pop	{r4, r5, r6, pc}
 8000512:	bf00      	nop
 8000514:	40013000 	.word	0x40013000
 8000518:	40010800 	.word	0x40010800

0800051c <HAL_TIM_Base_MspInit>:
* @param htim_base: TIM_Base handle pointer
* @retval None
*/
void HAL_TIM_Base_MspInit(TIM_HandleTypeDef* htim_base)
{
  if(htim_base->Instance==TIM2)
 800051c:	6803      	ldr	r3, [r0, #0]
 800051e:	f1b3 4f80 	cmp.w	r3, #1073741824	; 0x40000000
 8000522:	d000      	beq.n	8000526 <HAL_TIM_Base_MspInit+0xa>
 8000524:	4770      	bx	lr

  /* USER CODE END TIM2_MspInit 0 */
    /* Peripheral clock enable */
    __HAL_RCC_TIM2_CLK_ENABLE();
    /* TIM2 interrupt Init */
    HAL_NVIC_SetPriority(TIM2_IRQn, 1, 0);
 8000526:	2101      	movs	r1, #1
    __HAL_RCC_TIM2_CLK_ENABLE();
 8000528:	f503 3304 	add.w	r3, r3, #135168	; 0x21000
 800052c:	69d8      	ldr	r0, [r3, #28]
{
 800052e:	b500      	push	{lr}
    __HAL_RCC_TIM2_CLK_ENABLE();
 8000530:	4308      	orrs	r0, r1
 8000532:	61d8      	str	r0, [r3, #28]
 8000534:	69db      	ldr	r3, [r3, #28]
{
 8000536:	b083      	sub	sp, #12
    __HAL_RCC_TIM2_CLK_ENABLE();
 8000538:	400b      	ands	r3, r1
 800053a:	9301      	str	r3, [sp, #4]
    HAL_NVIC_SetPriority(TIM2_IRQn, 1, 0);
 800053c:	2200      	movs	r2, #0
 800053e:	201c      	movs	r0, #28
    __HAL_RCC_TIM2_CLK_ENABLE();
 8000540:	9b01      	ldr	r3, [sp, #4]
    HAL_NVIC_SetPriority(TIM2_IRQn, 1, 0);
 8000542:	f000 fd4f 	bl	8000fe4 <HAL_NVIC_SetPriority>
    HAL_NVIC_EnableIRQ(TIM2_IRQn);
 8000546:	201c      	movs	r0, #28
  /* USER CODE BEGIN TIM2_MspInit 1 */

  /* USER CODE END TIM2_MspInit 1 */
  }

}
 8000548:	b003      	add	sp, #12
 800054a:	f85d eb04 	ldr.w	lr, [sp], #4
    HAL_NVIC_EnableIRQ(TIM2_IRQn);
 800054e:	f000 bd81 	b.w	8001054 <HAL_NVIC_EnableIRQ>
 8000552:	bf00      	nop

08000554 <HAL_UART_MspInit>:
* This function configures the hardware resources used in this example
* @param huart: UART handle pointer
* @retval None
*/
void HAL_UART_MspInit(UART_HandleTypeDef* huart)
{
 8000554:	b530      	push	{r4, r5, lr}
  GPIO_InitTypeDef GPIO_InitStruct = {0};
 8000556:	2400      	movs	r4, #0
  if(huart->Instance==USART1)
 8000558:	6802      	ldr	r2, [r0, #0]
 800055a:	4b20      	ldr	r3, [pc, #128]	; (80005dc <HAL_UART_MspInit+0x88>)
{
 800055c:	b087      	sub	sp, #28
  if(huart->Instance==USART1)
 800055e:	429a      	cmp	r2, r3
  GPIO_InitTypeDef GPIO_InitStruct = {0};
 8000560:	e9cd 4402 	strd	r4, r4, [sp, #8]
 8000564:	e9cd 4404 	strd	r4, r4, [sp, #16]
  if(huart->Instance==USART1)
 8000568:	d001      	beq.n	800056e <HAL_UART_MspInit+0x1a>
  /* USER CODE BEGIN USART1_MspInit 1 */

  /* USER CODE END USART1_MspInit 1 */
  }

}
 800056a:	b007      	add	sp, #28
 800056c:	bd30      	pop	{r4, r5, pc}
    GPIO_InitStruct.Pin = GPIO_PIN_9;
 800056e:	f44f 7000 	mov.w	r0, #512	; 0x200
 8000572:	2102      	movs	r1, #2
    GPIO_InitStruct.Speed = GPIO_SPEED_FREQ_HIGH;
 8000574:	2503      	movs	r5, #3
    __HAL_RCC_USART1_CLK_ENABLE();
 8000576:	f503 4358 	add.w	r3, r3, #55296	; 0xd800
 800057a:	699a      	ldr	r2, [r3, #24]
 800057c:	f442 4280 	orr.w	r2, r2, #16384	; 0x4000
 8000580:	619a      	str	r2, [r3, #24]
 8000582:	699a      	ldr	r2, [r3, #24]
 8000584:	f402 4280 	and.w	r2, r2, #16384	; 0x4000
 8000588:	9200      	str	r2, [sp, #0]
 800058a:	9a00      	ldr	r2, [sp, #0]
    __HAL_RCC_GPIOA_CLK_ENABLE();
 800058c:	699a      	ldr	r2, [r3, #24]
 800058e:	f042 0204 	orr.w	r2, r2, #4
 8000592:	619a      	str	r2, [r3, #24]
 8000594:	699b      	ldr	r3, [r3, #24]
    GPIO_InitStruct.Pin = GPIO_PIN_9;
 8000596:	e9cd 0102 	strd	r0, r1, [sp, #8]
    __HAL_RCC_GPIOA_CLK_ENABLE();
 800059a:	f003 0304 	and.w	r3, r3, #4
    HAL_GPIO_Init(GPIOA, &GPIO_InitStruct);
 800059e:	f100 4080 	add.w	r0, r0, #1073741824	; 0x40000000
    __HAL_RCC_GPIOA_CLK_ENABLE();
 80005a2:	9301      	str	r3, [sp, #4]
    HAL_GPIO_Init(GPIOA, &GPIO_InitStruct);
 80005a4:	a902      	add	r1, sp, #8
 80005a6:	f500 3083 	add.w	r0, r0, #67072	; 0x10600
    __HAL_RCC_GPIOA_CLK_ENABLE();
 80005aa:	9b01      	ldr	r3, [sp, #4]
    GPIO_InitStruct.Speed = GPIO_SPEED_FREQ_HIGH;
 80005ac:	9505      	str	r5, [sp, #20]
    HAL_GPIO_Init(GPIOA, &GPIO_InitStruct);
 80005ae:	f000 fde3 	bl	8001178 <HAL_GPIO_Init>
    GPIO_InitStruct.Pin = GPIO_PIN_10;
 80005b2:	2300      	movs	r3, #0
 80005b4:	f44f 6280 	mov.w	r2, #1024	; 0x400
    HAL_GPIO_Init(GPIOA, &GPIO_InitStruct);
 80005b8:	a902      	add	r1, sp, #8
 80005ba:	4809      	ldr	r0, [pc, #36]	; (80005e0 <HAL_UART_MspInit+0x8c>)
    GPIO_InitStruct.Pin = GPIO_PIN_10;
 80005bc:	e9cd 2302 	strd	r2, r3, [sp, #8]
    GPIO_InitStruct.Pull = GPIO_NOPULL;
 80005c0:	9404      	str	r4, [sp, #16]
    HAL_GPIO_Init(GPIOA, &GPIO_InitStruct);
 80005c2:	f000 fdd9 	bl	8001178 <HAL_GPIO_Init>
    HAL_NVIC_SetPriority(USART1_IRQn, 0, 0);
 80005c6:	4622      	mov	r2, r4
 80005c8:	4621      	mov	r1, r4
 80005ca:	2025      	movs	r0, #37	; 0x25
 80005cc:	f000 fd0a 	bl	8000fe4 <HAL_NVIC_SetPriority>
    HAL_NVIC_EnableIRQ(USART1_IRQn);
 80005d0:	2025      	movs	r0, #37	; 0x25
 80005d2:	f000 fd3f 	bl	8001054 <HAL_NVIC_EnableIRQ>
}
 80005d6:	b007      	add	sp, #28
 80005d8:	bd30      	pop	{r4, r5, pc}
 80005da:	bf00      	nop
 80005dc:	40013800 	.word	0x40013800
 80005e0:	40010800 	.word	0x40010800

080005e4 <NMI_Handler>:
{
  /* USER CODE BEGIN NonMaskableInt_IRQn 0 */

  /* USER CODE END NonMaskableInt_IRQn 0 */
  /* USER CODE BEGIN NonMaskableInt_IRQn 1 */
  while (1)
 80005e4:	e7fe      	b.n	80005e4 <NMI_Handler>
 80005e6:	bf00      	nop

080005e8 <HardFault_Handler>:
void HardFault_Handler(void)
{
  /* USER CODE BEGIN HardFault_IRQn 0 */

  /* USER CODE END HardFault_IRQn 0 */
  while (1)
 80005e8:	e7fe      	b.n	80005e8 <HardFault_Handler>
 80005ea:	bf00      	nop

080005ec <MemManage_Handler>:
void MemManage_Handler(void)
{
  /* USER CODE BEGIN MemoryManagement_IRQn 0 */

  /* USER CODE END MemoryManagement_IRQn 0 */
  while (1)
 80005ec:	e7fe      	b.n	80005ec <MemManage_Handler>
 80005ee:	bf00      	nop

080005f0 <BusFault_Handler>:
void BusFault_Handler(void)
{
  /* USER CODE BEGIN BusFault_IRQn 0 */

  /* USER CODE END BusFault_IRQn 0 */
  while (1)
 80005f0:	e7fe      	b.n	80005f0 <BusFault_Handler>
 80005f2:	bf00      	nop

080005f4 <UsageFault_Handler>:
void UsageFault_Handler(void)
{
  /* USER CODE BEGIN UsageFault_IRQn 0 */

  /* USER CODE END UsageFault_IRQn 0 */
  while (1)
 80005f4:	e7fe      	b.n	80005f4 <UsageFault_Handler>
 80005f6:	bf00      	nop

080005f8 <SVC_Handler>:

  /* USER CODE END SVCall_IRQn 0 */
  /* USER CODE BEGIN SVCall_IRQn 1 */

  /* USER CODE END SVCall_IRQn 1 */
}
 80005f8:	4770      	bx	lr
 80005fa:	bf00      	nop

080005fc <DebugMon_Handler>:
 80005fc:	4770      	bx	lr
 80005fe:	bf00      	nop

08000600 <PendSV_Handler>:
 8000600:	4770      	bx	lr
 8000602:	bf00      	nop

08000604 <SysTick_Handler>:
void SysTick_Handler(void)
{
  /* USER CODE BEGIN SysTick_IRQn 0 */

  /* USER CODE END SysTick_IRQn 0 */
  HAL_IncTick();
 8000604:	f000 bcca 	b.w	8000f9c <HAL_IncTick>

08000608 <TIM2_IRQHandler>:
  * @brief This function handles TIM2 global interrupt.
  */
void TIM2_IRQHandler(void)
{
  /* USER CODE BEGIN TIM2_IRQn 0 */
	sample();
 8000608:	f7ff beb4 	b.w	8000374 <sample>

0800060c <USART1_IRQHandler>:
void USART1_IRQHandler(void)
{
  /* USER CODE BEGIN USART1_IRQn 0 */

  /* USER CODE END USART1_IRQn 0 */
  HAL_UART_IRQHandler(&huart1);
 800060c:	4801      	ldr	r0, [pc, #4]	; (8000614 <USART1_IRQHandler+0x8>)
 800060e:	f001 bc79 	b.w	8001f04 <HAL_UART_IRQHandler>
 8000612:	bf00      	nop
 8000614:	20000244 	.word	0x20000244

08000618 <init_synth>:
	for (uint8_t i = 0; i < MAX_OPERATORS; i++) {
		algo = 0x00;								//default algorithm 0
		op_amp[i] = 0xFF;							//default amplitude 255
		op_ratio[i] = 0x01;							//default multiplier 1
		for (uint8_t o = 0; o < MAX_VOICES; o++) {
			op[i][o] = (OPERATOR) {-1, -1, -1, -1};
 8000618:	4ad5      	ldr	r2, [pc, #852]	; (8000970 <init_synth+0x358>)
void init_synth() {
 800061a:	e92d 4ff0 	stmdb	sp!, {r4, r5, r6, r7, r8, r9, sl, fp, lr}
			op[i][o] = (OPERATOR) {-1, -1, -1, -1};
 800061e:	4613      	mov	r3, r2
 8000620:	4693      	mov	fp, r2
 8000622:	cb03      	ldmia	r3!, {r0, r1}
 8000624:	4692      	mov	sl, r2
 8000626:	4691      	mov	r9, r2
 8000628:	4690      	mov	r8, r2
 800062a:	4696      	mov	lr, r2
 800062c:	4694      	mov	ip, r2
 800062e:	4bd1      	ldr	r3, [pc, #836]	; (8000974 <init_synth+0x35c>)
void init_synth() {
 8000630:	b0a3      	sub	sp, #140	; 0x8c
			op[i][o] = (OPERATOR) {-1, -1, -1, -1};
 8000632:	e9cd 2201 	strd	r2, r2, [sp, #4]
 8000636:	e9cd 2203 	strd	r2, r2, [sp, #12]
 800063a:	e9cd 2205 	strd	r2, r2, [sp, #20]
 800063e:	e9cd 2207 	strd	r2, r2, [sp, #28]
 8000642:	e9cd 2209 	strd	r2, r2, [sp, #36]	; 0x24
 8000646:	e9cd 220b 	strd	r2, r2, [sp, #44]	; 0x2c
 800064a:	e9cd 220d 	strd	r2, r2, [sp, #52]	; 0x34
 800064e:	e9cd 220f 	strd	r2, r2, [sp, #60]	; 0x3c
 8000652:	e9cd 2211 	strd	r2, r2, [sp, #68]	; 0x44
 8000656:	9213      	str	r2, [sp, #76]	; 0x4c
 8000658:	6018      	str	r0, [r3, #0]
 800065a:	6059      	str	r1, [r3, #4]
 800065c:	9214      	str	r2, [sp, #80]	; 0x50
 800065e:	e8bb 0003 	ldmia.w	fp!, {r0, r1}
 8000662:	9215      	str	r2, [sp, #84]	; 0x54
 8000664:	6098      	str	r0, [r3, #8]
 8000666:	60d9      	str	r1, [r3, #12]
 8000668:	e8ba 0003 	ldmia.w	sl!, {r0, r1}
 800066c:	6118      	str	r0, [r3, #16]
 800066e:	6159      	str	r1, [r3, #20]
 8000670:	e8b9 0003 	ldmia.w	r9!, {r0, r1}
 8000674:	6198      	str	r0, [r3, #24]
 8000676:	61d9      	str	r1, [r3, #28]
 8000678:	e8b8 0003 	ldmia.w	r8!, {r0, r1}
 800067c:	6218      	str	r0, [r3, #32]
 800067e:	6259      	str	r1, [r3, #36]	; 0x24
 8000680:	e8be 0003 	ldmia.w	lr!, {r0, r1}
 8000684:	6298      	str	r0, [r3, #40]	; 0x28
 8000686:	62d9      	str	r1, [r3, #44]	; 0x2c
 8000688:	e8bc 0003 	ldmia.w	ip!, {r0, r1}
 800068c:	6318      	str	r0, [r3, #48]	; 0x30
		algo = 0x00;								//default algorithm 0
 800068e:	f04f 0000 	mov.w	r0, #0
			op[i][o] = (OPERATOR) {-1, -1, -1, -1};
 8000692:	6359      	str	r1, [r3, #52]	; 0x34
		algo = 0x00;								//default algorithm 0
 8000694:	49b8      	ldr	r1, [pc, #736]	; (8000978 <init_synth+0x360>)
			op[i][o] = (OPERATOR) {-1, -1, -1, -1};
 8000696:	4617      	mov	r7, r2
		algo = 0x00;								//default algorithm 0
 8000698:	7008      	strb	r0, [r1, #0]
	for (uint8_t i = 0; i < MAX_OPERATORS; i++) {
 800069a:	f04f 30ff 	mov.w	r0, #4294967295
 800069e:	49b7      	ldr	r1, [pc, #732]	; (800097c <init_synth+0x364>)
			op[i][o] = (OPERATOR) {-1, -1, -1, -1};
 80006a0:	4616      	mov	r6, r2
 80006a2:	6008      	str	r0, [r1, #0]
 80006a4:	4615      	mov	r5, r2
 80006a6:	4614      	mov	r4, r2
 80006a8:	f04f 3001 	mov.w	r0, #16843009	; 0x1010101
 80006ac:	49b4      	ldr	r1, [pc, #720]	; (8000980 <init_synth+0x368>)
 80006ae:	9216      	str	r2, [sp, #88]	; 0x58
 80006b0:	9217      	str	r2, [sp, #92]	; 0x5c
 80006b2:	9218      	str	r2, [sp, #96]	; 0x60
 80006b4:	9219      	str	r2, [sp, #100]	; 0x64
 80006b6:	921a      	str	r2, [sp, #104]	; 0x68
 80006b8:	921b      	str	r2, [sp, #108]	; 0x6c
 80006ba:	921c      	str	r2, [sp, #112]	; 0x70
 80006bc:	921d      	str	r2, [sp, #116]	; 0x74
 80006be:	6008      	str	r0, [r1, #0]
 80006c0:	cf03      	ldmia	r7!, {r0, r1}
 80006c2:	6398      	str	r0, [r3, #56]	; 0x38
 80006c4:	63d9      	str	r1, [r3, #60]	; 0x3c
 80006c6:	921e      	str	r2, [sp, #120]	; 0x78
 80006c8:	ce03      	ldmia	r6!, {r0, r1}
 80006ca:	6418      	str	r0, [r3, #64]	; 0x40
 80006cc:	6459      	str	r1, [r3, #68]	; 0x44
 80006ce:	cd03      	ldmia	r5!, {r0, r1}
 80006d0:	6498      	str	r0, [r3, #72]	; 0x48
 80006d2:	64d9      	str	r1, [r3, #76]	; 0x4c
 80006d4:	cc03      	ldmia	r4!, {r0, r1}
 80006d6:	4614      	mov	r4, r2
 80006d8:	6518      	str	r0, [r3, #80]	; 0x50
 80006da:	6559      	str	r1, [r3, #84]	; 0x54
 80006dc:	cc03      	ldmia	r4!, {r0, r1}
 80006de:	4614      	mov	r4, r2
 80006e0:	6598      	str	r0, [r3, #88]	; 0x58
 80006e2:	65d9      	str	r1, [r3, #92]	; 0x5c
 80006e4:	cc03      	ldmia	r4!, {r0, r1}
 80006e6:	4614      	mov	r4, r2
 80006e8:	6618      	str	r0, [r3, #96]	; 0x60
 80006ea:	6659      	str	r1, [r3, #100]	; 0x64
 80006ec:	4615      	mov	r5, r2
 80006ee:	cc03      	ldmia	r4!, {r0, r1}
 80006f0:	4616      	mov	r6, r2
 80006f2:	4614      	mov	r4, r2
 80006f4:	4617      	mov	r7, r2
 80006f6:	4694      	mov	ip, r2
 80006f8:	921f      	str	r2, [sp, #124]	; 0x7c
 80006fa:	9220      	str	r2, [sp, #128]	; 0x80
 80006fc:	9221      	str	r2, [sp, #132]	; 0x84
 80006fe:	6698      	str	r0, [r3, #104]	; 0x68
 8000700:	66d9      	str	r1, [r3, #108]	; 0x6c
 8000702:	cc03      	ldmia	r4!, {r0, r1}
 8000704:	6718      	str	r0, [r3, #112]	; 0x70
 8000706:	6759      	str	r1, [r3, #116]	; 0x74
 8000708:	cd03      	ldmia	r5!, {r0, r1}
 800070a:	6798      	str	r0, [r3, #120]	; 0x78
 800070c:	67d9      	str	r1, [r3, #124]	; 0x7c
 800070e:	ce03      	ldmia	r6!, {r0, r1}
 8000710:	f8c3 0080 	str.w	r0, [r3, #128]	; 0x80
 8000714:	f8c3 1084 	str.w	r1, [r3, #132]	; 0x84
 8000718:	cf03      	ldmia	r7!, {r0, r1}
 800071a:	f8c3 0088 	str.w	r0, [r3, #136]	; 0x88
 800071e:	f8c3 108c 	str.w	r1, [r3, #140]	; 0x8c
 8000722:	e8bc 0003 	ldmia.w	ip!, {r0, r1}
 8000726:	4694      	mov	ip, r2
 8000728:	f8c3 0090 	str.w	r0, [r3, #144]	; 0x90
 800072c:	f8c3 1094 	str.w	r1, [r3, #148]	; 0x94
 8000730:	e8bc 0003 	ldmia.w	ip!, {r0, r1}
 8000734:	4694      	mov	ip, r2
 8000736:	f8c3 0098 	str.w	r0, [r3, #152]	; 0x98
 800073a:	f8c3 109c 	str.w	r1, [r3, #156]	; 0x9c
 800073e:	e8bc 0003 	ldmia.w	ip!, {r0, r1}
 8000742:	4694      	mov	ip, r2
 8000744:	f8c3 00a0 	str.w	r0, [r3, #160]	; 0xa0
 8000748:	f8c3 10a4 	str.w	r1, [r3, #164]	; 0xa4
 800074c:	e8bc 0003 	ldmia.w	ip!, {r0, r1}
 8000750:	4694      	mov	ip, r2
 8000752:	f8c3 00a8 	str.w	r0, [r3, #168]	; 0xa8
 8000756:	f8c3 10ac 	str.w	r1, [r3, #172]	; 0xac
 800075a:	e8bc 0003 	ldmia.w	ip!, {r0, r1}
 800075e:	4694      	mov	ip, r2
 8000760:	f8c3 00b0 	str.w	r0, [r3, #176]	; 0xb0
 8000764:	f8c3 10b4 	str.w	r1, [r3, #180]	; 0xb4
 8000768:	e8bc 0003 	ldmia.w	ip!, {r0, r1}
 800076c:	4694      	mov	ip, r2
 800076e:	f8c3 00b8 	str.w	r0, [r3, #184]	; 0xb8
 8000772:	f8c3 10bc 	str.w	r1, [r3, #188]	; 0xbc
 8000776:	e8bc 0003 	ldmia.w	ip!, {r0, r1}
 800077a:	4694      	mov	ip, r2
 800077c:	f8c3 00c0 	str.w	r0, [r3, #192]	; 0xc0
 8000780:	f8c3 10c4 	str.w	r1, [r3, #196]	; 0xc4
 8000784:	e8bc 0003 	ldmia.w	ip!, {r0, r1}
 8000788:	4694      	mov	ip, r2
 800078a:	f8c3 00c8 	str.w	r0, [r3, #200]	; 0xc8
 800078e:	f8c3 10cc 	str.w	r1, [r3, #204]	; 0xcc
 8000792:	e8bc 0003 	ldmia.w	ip!, {r0, r1}
 8000796:	4694      	mov	ip, r2
 8000798:	f8c3 00d0 	str.w	r0, [r3, #208]	; 0xd0
 800079c:	f8c3 10d4 	str.w	r1, [r3, #212]	; 0xd4
 80007a0:	e8bc 0003 	ldmia.w	ip!, {r0, r1}
 80007a4:	4694      	mov	ip, r2
 80007a6:	4614      	mov	r4, r2
 80007a8:	f8c3 00d8 	str.w	r0, [r3, #216]	; 0xd8
 80007ac:	f8c3 10dc 	str.w	r1, [r3, #220]	; 0xdc
 80007b0:	e8bc 0003 	ldmia.w	ip!, {r0, r1}
 80007b4:	4694      	mov	ip, r2
 80007b6:	4692      	mov	sl, r2
 80007b8:	f8c3 00e0 	str.w	r0, [r3, #224]	; 0xe0
 80007bc:	f8c3 10e4 	str.w	r1, [r3, #228]	; 0xe4
 80007c0:	4615      	mov	r5, r2
 80007c2:	e8bc 0003 	ldmia.w	ip!, {r0, r1}
 80007c6:	4616      	mov	r6, r2
 80007c8:	f8c3 00e8 	str.w	r0, [r3, #232]	; 0xe8
 80007cc:	f8c3 10ec 	str.w	r1, [r3, #236]	; 0xec
 80007d0:	4617      	mov	r7, r2
 80007d2:	4693      	mov	fp, r2
 80007d4:	4691      	mov	r9, r2
 80007d6:	4690      	mov	r8, r2
 80007d8:	4696      	mov	lr, r2
 80007da:	4694      	mov	ip, r2
 80007dc:	ca03      	ldmia	r2!, {r0, r1}
 80007de:	4622      	mov	r2, r4
 80007e0:	f8c3 00f0 	str.w	r0, [r3, #240]	; 0xf0
 80007e4:	f8c3 10f4 	str.w	r1, [r3, #244]	; 0xf4
 80007e8:	ca03      	ldmia	r2!, {r0, r1}
 80007ea:	4622      	mov	r2, r4
 80007ec:	f8c3 00f8 	str.w	r0, [r3, #248]	; 0xf8
 80007f0:	f8c3 10fc 	str.w	r1, [r3, #252]	; 0xfc
 80007f4:	ca03      	ldmia	r2!, {r0, r1}
 80007f6:	4622      	mov	r2, r4
 80007f8:	f8c3 0100 	str.w	r0, [r3, #256]	; 0x100
 80007fc:	f8c3 1104 	str.w	r1, [r3, #260]	; 0x104
 8000800:	ca03      	ldmia	r2!, {r0, r1}
 8000802:	4622      	mov	r2, r4
 8000804:	f8c3 0108 	str.w	r0, [r3, #264]	; 0x108
 8000808:	f8c3 110c 	str.w	r1, [r3, #268]	; 0x10c
 800080c:	ca03      	ldmia	r2!, {r0, r1}
 800080e:	4622      	mov	r2, r4
 8000810:	f8c3 0110 	str.w	r0, [r3, #272]	; 0x110
 8000814:	f8c3 1114 	str.w	r1, [r3, #276]	; 0x114
 8000818:	ca03      	ldmia	r2!, {r0, r1}
 800081a:	4622      	mov	r2, r4
 800081c:	f8c3 0118 	str.w	r0, [r3, #280]	; 0x118
 8000820:	f8c3 111c 	str.w	r1, [r3, #284]	; 0x11c
 8000824:	ca03      	ldmia	r2!, {r0, r1}
 8000826:	4622      	mov	r2, r4
 8000828:	f8c3 0120 	str.w	r0, [r3, #288]	; 0x120
 800082c:	f8c3 1124 	str.w	r1, [r3, #292]	; 0x124
 8000830:	ca03      	ldmia	r2!, {r0, r1}
 8000832:	4622      	mov	r2, r4
 8000834:	f8c3 0128 	str.w	r0, [r3, #296]	; 0x128
 8000838:	f8c3 112c 	str.w	r1, [r3, #300]	; 0x12c
 800083c:	ca03      	ldmia	r2!, {r0, r1}
 800083e:	4622      	mov	r2, r4
 8000840:	f8c3 0130 	str.w	r0, [r3, #304]	; 0x130
 8000844:	f8c3 1134 	str.w	r1, [r3, #308]	; 0x134
 8000848:	ca03      	ldmia	r2!, {r0, r1}
 800084a:	4622      	mov	r2, r4
 800084c:	f8c3 0138 	str.w	r0, [r3, #312]	; 0x138
 8000850:	f8c3 113c 	str.w	r1, [r3, #316]	; 0x13c
 8000854:	ca03      	ldmia	r2!, {r0, r1}
 8000856:	4622      	mov	r2, r4
 8000858:	f8c3 0140 	str.w	r0, [r3, #320]	; 0x140
 800085c:	f8c3 1144 	str.w	r1, [r3, #324]	; 0x144
 8000860:	ca03      	ldmia	r2!, {r0, r1}
 8000862:	4622      	mov	r2, r4
 8000864:	f8c3 0148 	str.w	r0, [r3, #328]	; 0x148
 8000868:	f8c3 114c 	str.w	r1, [r3, #332]	; 0x14c
 800086c:	ca03      	ldmia	r2!, {r0, r1}
 800086e:	4622      	mov	r2, r4
 8000870:	f8c3 0150 	str.w	r0, [r3, #336]	; 0x150
 8000874:	f8c3 1154 	str.w	r1, [r3, #340]	; 0x154
 8000878:	ca03      	ldmia	r2!, {r0, r1}
 800087a:	4622      	mov	r2, r4
 800087c:	f8c3 0158 	str.w	r0, [r3, #344]	; 0x158
 8000880:	f8c3 115c 	str.w	r1, [r3, #348]	; 0x15c
 8000884:	ca03      	ldmia	r2!, {r0, r1}
 8000886:	4622      	mov	r2, r4
 8000888:	f8c3 0160 	str.w	r0, [r3, #352]	; 0x160
 800088c:	f8c3 1164 	str.w	r1, [r3, #356]	; 0x164
 8000890:	ca03      	ldmia	r2!, {r0, r1}
 8000892:	4622      	mov	r2, r4
 8000894:	f8c3 0168 	str.w	r0, [r3, #360]	; 0x168
 8000898:	f8c3 116c 	str.w	r1, [r3, #364]	; 0x16c
 800089c:	ca03      	ldmia	r2!, {r0, r1}
 800089e:	4622      	mov	r2, r4
 80008a0:	f8c3 0170 	str.w	r0, [r3, #368]	; 0x170
 80008a4:	f8c3 1174 	str.w	r1, [r3, #372]	; 0x174
 80008a8:	ca03      	ldmia	r2!, {r0, r1}
 80008aa:	f8c3 0178 	str.w	r0, [r3, #376]	; 0x178
 80008ae:	f8c3 117c 	str.w	r1, [r3, #380]	; 0x17c
 80008b2:	cc03      	ldmia	r4!, {r0, r1}
 80008b4:	4654      	mov	r4, sl
 80008b6:	f8c3 0180 	str.w	r0, [r3, #384]	; 0x180
 80008ba:	f8c3 1184 	str.w	r1, [r3, #388]	; 0x184
 80008be:	cd03      	ldmia	r5!, {r0, r1}
 80008c0:	f8c3 0188 	str.w	r0, [r3, #392]	; 0x188
 80008c4:	f8c3 118c 	str.w	r1, [r3, #396]	; 0x18c
 80008c8:	ce03      	ldmia	r6!, {r0, r1}
 80008ca:	f8c3 0190 	str.w	r0, [r3, #400]	; 0x190
 80008ce:	f8c3 1194 	str.w	r1, [r3, #404]	; 0x194
 80008d2:	cf03      	ldmia	r7!, {r0, r1}
 80008d4:	f8c3 0198 	str.w	r0, [r3, #408]	; 0x198
 80008d8:	f8c3 119c 	str.w	r1, [r3, #412]	; 0x19c
 80008dc:	cc03      	ldmia	r4!, {r0, r1}
 80008de:	4654      	mov	r4, sl
 80008e0:	f8c3 01a0 	str.w	r0, [r3, #416]	; 0x1a0
 80008e4:	f8c3 11a4 	str.w	r1, [r3, #420]	; 0x1a4
 80008e8:	cc03      	ldmia	r4!, {r0, r1}
 80008ea:	4654      	mov	r4, sl
 80008ec:	f8c3 01a8 	str.w	r0, [r3, #424]	; 0x1a8
 80008f0:	f8c3 11ac 	str.w	r1, [r3, #428]	; 0x1ac
 80008f4:	cc03      	ldmia	r4!, {r0, r1}
 80008f6:	4654      	mov	r4, sl
 80008f8:	4652      	mov	r2, sl
 80008fa:	f8c3 01b0 	str.w	r0, [r3, #432]	; 0x1b0
 80008fe:	f8c3 11b4 	str.w	r1, [r3, #436]	; 0x1b4
 8000902:	cc03      	ldmia	r4!, {r0, r1}
 8000904:	4654      	mov	r4, sl
 8000906:	f8c3 01b8 	str.w	r0, [r3, #440]	; 0x1b8
 800090a:	f8c3 11bc 	str.w	r1, [r3, #444]	; 0x1bc
 800090e:	cc03      	ldmia	r4!, {r0, r1}
 8000910:	f8c3 01c0 	str.w	r0, [r3, #448]	; 0x1c0
 8000914:	f8c3 11c4 	str.w	r1, [r3, #452]	; 0x1c4
 8000918:	ca03      	ldmia	r2!, {r0, r1}
 800091a:	f8c3 01c8 	str.w	r0, [r3, #456]	; 0x1c8
 800091e:	f8c3 11cc 	str.w	r1, [r3, #460]	; 0x1cc
 8000922:	e8ba 0003 	ldmia.w	sl!, {r0, r1}
 8000926:	f8c3 01d0 	str.w	r0, [r3, #464]	; 0x1d0
 800092a:	f8c3 11d4 	str.w	r1, [r3, #468]	; 0x1d4
 800092e:	e8bb 0003 	ldmia.w	fp!, {r0, r1}
 8000932:	f8c3 01d8 	str.w	r0, [r3, #472]	; 0x1d8
 8000936:	f8c3 11dc 	str.w	r1, [r3, #476]	; 0x1dc
 800093a:	e8b9 0003 	ldmia.w	r9!, {r0, r1}
 800093e:	f8c3 01e0 	str.w	r0, [r3, #480]	; 0x1e0
 8000942:	f8c3 11e4 	str.w	r1, [r3, #484]	; 0x1e4
 8000946:	e8b8 0003 	ldmia.w	r8!, {r0, r1}
 800094a:	f8c3 01e8 	str.w	r0, [r3, #488]	; 0x1e8
 800094e:	f8c3 11ec 	str.w	r1, [r3, #492]	; 0x1ec
 8000952:	e8be 0003 	ldmia.w	lr!, {r0, r1}
 8000956:	f8c3 01f0 	str.w	r0, [r3, #496]	; 0x1f0
 800095a:	f8c3 11f4 	str.w	r1, [r3, #500]	; 0x1f4
 800095e:	e8bc 0003 	ldmia.w	ip!, {r0, r1}
 8000962:	f8c3 01f8 	str.w	r0, [r3, #504]	; 0x1f8
 8000966:	f8c3 11fc 	str.w	r1, [r3, #508]	; 0x1fc
		}
	}
}
 800096a:	b023      	add	sp, #140	; 0x8c
 800096c:	e8bd 8ff0 	ldmia.w	sp!, {r4, r5, r6, r7, r8, r9, sl, fp, pc}
 8000970:	080021c0 	.word	0x080021c0
 8000974:	20000034 	.word	0x20000034
 8000978:	20000234 	.word	0x20000234
 800097c:	20000238 	.word	0x20000238
 8000980:	20000240 	.word	0x20000240

08000984 <add_voice>:

void add_voice(uint8_t note_value) {
 8000984:	e92d 47f0 	stmdb	sp!, {r4, r5, r6, r7, r8, r9, sl, lr}
//		if (op[0][voice_index].note_value == note_value) {
//			return;
//		}
//	}
	for (voice_index = 0; voice_index < MAX_VOICES; voice_index++) {
		if (op[0][voice_index].note_value == (uint8_t)-1) {
 8000988:	4c43      	ldr	r4, [pc, #268]	; (8000a98 <add_voice+0x114>)
void add_voice(uint8_t note_value) {
 800098a:	4681      	mov	r9, r0
		if (op[0][voice_index].note_value == (uint8_t)-1) {
 800098c:	7823      	ldrb	r3, [r4, #0]
 800098e:	2bff      	cmp	r3, #255	; 0xff
 8000990:	d066      	beq.n	8000a60 <add_voice+0xdc>
 8000992:	7a23      	ldrb	r3, [r4, #8]
 8000994:	2bff      	cmp	r3, #255	; 0xff
 8000996:	d065      	beq.n	8000a64 <add_voice+0xe0>
 8000998:	7c23      	ldrb	r3, [r4, #16]
 800099a:	2bff      	cmp	r3, #255	; 0xff
 800099c:	d066      	beq.n	8000a6c <add_voice+0xe8>
 800099e:	7e23      	ldrb	r3, [r4, #24]
 80009a0:	2bff      	cmp	r3, #255	; 0xff
 80009a2:	d065      	beq.n	8000a70 <add_voice+0xec>
 80009a4:	f894 3020 	ldrb.w	r3, [r4, #32]
 80009a8:	2bff      	cmp	r3, #255	; 0xff
 80009aa:	d063      	beq.n	8000a74 <add_voice+0xf0>
 80009ac:	f894 3028 	ldrb.w	r3, [r4, #40]	; 0x28
 80009b0:	2bff      	cmp	r3, #255	; 0xff
 80009b2:	d061      	beq.n	8000a78 <add_voice+0xf4>
 80009b4:	f894 3030 	ldrb.w	r3, [r4, #48]	; 0x30
 80009b8:	2bff      	cmp	r3, #255	; 0xff
 80009ba:	d05f      	beq.n	8000a7c <add_voice+0xf8>
 80009bc:	f894 3038 	ldrb.w	r3, [r4, #56]	; 0x38
 80009c0:	2bff      	cmp	r3, #255	; 0xff
 80009c2:	d05d      	beq.n	8000a80 <add_voice+0xfc>
 80009c4:	f894 3040 	ldrb.w	r3, [r4, #64]	; 0x40
 80009c8:	2bff      	cmp	r3, #255	; 0xff
 80009ca:	d05b      	beq.n	8000a84 <add_voice+0x100>
 80009cc:	f894 3048 	ldrb.w	r3, [r4, #72]	; 0x48
 80009d0:	2bff      	cmp	r3, #255	; 0xff
 80009d2:	d059      	beq.n	8000a88 <add_voice+0x104>
 80009d4:	f894 3050 	ldrb.w	r3, [r4, #80]	; 0x50
 80009d8:	2bff      	cmp	r3, #255	; 0xff
 80009da:	d057      	beq.n	8000a8c <add_voice+0x108>
 80009dc:	f894 3058 	ldrb.w	r3, [r4, #88]	; 0x58
 80009e0:	2bff      	cmp	r3, #255	; 0xff
 80009e2:	d055      	beq.n	8000a90 <add_voice+0x10c>
 80009e4:	f894 3060 	ldrb.w	r3, [r4, #96]	; 0x60
 80009e8:	2bff      	cmp	r3, #255	; 0xff
 80009ea:	d03d      	beq.n	8000a68 <add_voice+0xe4>
 80009ec:	f894 3068 	ldrb.w	r3, [r4, #104]	; 0x68
 80009f0:	2bff      	cmp	r3, #255	; 0xff
 80009f2:	d04f      	beq.n	8000a94 <add_voice+0x110>
 80009f4:	f894 3070 	ldrb.w	r3, [r4, #112]	; 0x70
 80009f8:	2bff      	cmp	r3, #255	; 0xff
 80009fa:	d007      	beq.n	8000a0c <add_voice+0x88>
 80009fc:	f894 3078 	ldrb.w	r3, [r4, #120]	; 0x78
 8000a00:	2bff      	cmp	r3, #255	; 0xff
 8000a02:	bf08      	it	eq
 8000a04:	230f      	moveq	r3, #15
 8000a06:	d002      	beq.n	8000a0e <add_voice+0x8a>
		else {
			op[op_index][voice_index].delta = calculate_delta(op[0][voice_index].freq);						//calculate and store delta
		}
		op[op_index][voice_index].phase = 0;											//reset the phase (wave table index)
	}
}
 8000a08:	e8bd 87f0 	ldmia.w	sp!, {r4, r5, r6, r7, r8, r9, sl, pc}
		if (op[0][voice_index].note_value == (uint8_t)-1) {
 8000a0c:	230e      	movs	r3, #14
 8000a0e:	eb04 04c3 	add.w	r4, r4, r3, lsl #3
			op[op_index][voice_index].delta = calculate_delta(op[0][voice_index].freq);						//calculate and store delta
 8000a12:	4627      	mov	r7, r4
		if (op[0][voice_index].note_value == (uint8_t)-1) {
 8000a14:	2501      	movs	r5, #1
		op[op_index][voice_index].phase = 0;											//reset the phase (wave table index)
 8000a16:	f04f 0800 	mov.w	r8, #0
 8000a1a:	f8df a080 	ldr.w	sl, [pc, #128]	; 8000a9c <add_voice+0x118>
		op[op_index][voice_index].freq = op_ratio[op_index] * note_to_freq(note_value);	//store frequency
 8000a1e:	4648      	mov	r0, r9
		op[op_index][voice_index].note_value = note_value;								//store note
 8000a20:	f884 9000 	strb.w	r9, [r4]
		op[op_index][voice_index].freq = op_ratio[op_index] * note_to_freq(note_value);	//store frequency
 8000a24:	f81a 6b01 	ldrb.w	r6, [sl], #1
 8000a28:	f7ff fd12 	bl	8000450 <note_to_freq>
 8000a2c:	fb06 f600 	mul.w	r6, r6, r0
		if (op_index != 0)	{
 8000a30:	2d01      	cmp	r5, #1
		op[op_index][voice_index].freq = op_ratio[op_index] * note_to_freq(note_value);	//store frequency
 8000a32:	8066      	strh	r6, [r4, #2]
		if (op_index != 0)	{
 8000a34:	d00d      	beq.n	8000a52 <add_voice+0xce>
			op[op_index][voice_index].delta = op_ratio[op_index] * op[0][voice_index].delta;//multiply delta based off of ratio of carrier
 8000a36:	88ba      	ldrh	r2, [r7, #4]
 8000a38:	f81a 3c01 	ldrb.w	r3, [sl, #-1]
	for (uint8_t op_index = 0; op_index < MAX_OPERATORS; op_index++) {
 8000a3c:	2d04      	cmp	r5, #4
			op[op_index][voice_index].delta = op_ratio[op_index] * op[0][voice_index].delta;//multiply delta based off of ratio of carrier
 8000a3e:	fb03 f302 	mul.w	r3, r3, r2
		op[op_index][voice_index].phase = 0;											//reset the phase (wave table index)
 8000a42:	f8a4 8006 	strh.w	r8, [r4, #6]
			op[op_index][voice_index].delta = op_ratio[op_index] * op[0][voice_index].delta;//multiply delta based off of ratio of carrier
 8000a46:	80a3      	strh	r3, [r4, #4]
	for (uint8_t op_index = 0; op_index < MAX_OPERATORS; op_index++) {
 8000a48:	d0de      	beq.n	8000a08 <add_voice+0x84>
 8000a4a:	3501      	adds	r5, #1
 8000a4c:	b2ed      	uxtb	r5, r5
 8000a4e:	3480      	adds	r4, #128	; 0x80
 8000a50:	e7e5      	b.n	8000a1e <add_voice+0x9a>
			op[op_index][voice_index].delta = calculate_delta(op[0][voice_index].freq);						//calculate and store delta
 8000a52:	8878      	ldrh	r0, [r7, #2]
 8000a54:	f7ff fd02 	bl	800045c <calculate_delta>
 8000a58:	80b8      	strh	r0, [r7, #4]
		op[op_index][voice_index].phase = 0;											//reset the phase (wave table index)
 8000a5a:	f8a4 8006 	strh.w	r8, [r4, #6]
	for (uint8_t op_index = 0; op_index < MAX_OPERATORS; op_index++) {
 8000a5e:	e7f4      	b.n	8000a4a <add_voice+0xc6>
		if (op[0][voice_index].note_value == (uint8_t)-1) {
 8000a60:	2300      	movs	r3, #0
 8000a62:	e7d4      	b.n	8000a0e <add_voice+0x8a>
 8000a64:	2301      	movs	r3, #1
 8000a66:	e7d2      	b.n	8000a0e <add_voice+0x8a>
 8000a68:	230c      	movs	r3, #12
 8000a6a:	e7d0      	b.n	8000a0e <add_voice+0x8a>
 8000a6c:	2302      	movs	r3, #2
 8000a6e:	e7ce      	b.n	8000a0e <add_voice+0x8a>
 8000a70:	2303      	movs	r3, #3
 8000a72:	e7cc      	b.n	8000a0e <add_voice+0x8a>
 8000a74:	2304      	movs	r3, #4
 8000a76:	e7ca      	b.n	8000a0e <add_voice+0x8a>
 8000a78:	2305      	movs	r3, #5
 8000a7a:	e7c8      	b.n	8000a0e <add_voice+0x8a>
 8000a7c:	2306      	movs	r3, #6
 8000a7e:	e7c6      	b.n	8000a0e <add_voice+0x8a>
 8000a80:	2307      	movs	r3, #7
 8000a82:	e7c4      	b.n	8000a0e <add_voice+0x8a>
 8000a84:	2308      	movs	r3, #8
 8000a86:	e7c2      	b.n	8000a0e <add_voice+0x8a>
 8000a88:	2309      	movs	r3, #9
 8000a8a:	e7c0      	b.n	8000a0e <add_voice+0x8a>
 8000a8c:	230a      	movs	r3, #10
 8000a8e:	e7be      	b.n	8000a0e <add_voice+0x8a>
 8000a90:	230b      	movs	r3, #11
 8000a92:	e7bc      	b.n	8000a0e <add_voice+0x8a>
 8000a94:	230d      	movs	r3, #13
 8000a96:	e7ba      	b.n	8000a0e <add_voice+0x8a>
 8000a98:	20000034 	.word	0x20000034
 8000a9c:	20000240 	.word	0x20000240

08000aa0 <delete_voice>:

void delete_voice(uint8_t note_value) {
	uint8_t voice_index;
	for (voice_index = 0; voice_index < MAX_VOICES; voice_index++) {
		if (op[0][voice_index].note_value == note_value) {
 8000aa0:	4b34      	ldr	r3, [pc, #208]	; (8000b74 <delete_voice+0xd4>)
 8000aa2:	781a      	ldrb	r2, [r3, #0]
 8000aa4:	4282      	cmp	r2, r0
			op[0][voice_index].note_value = -1;
 8000aa6:	bf04      	itt	eq
 8000aa8:	22ff      	moveq	r2, #255	; 0xff
 8000aaa:	701a      	strbeq	r2, [r3, #0]
		if (op[0][voice_index].note_value == note_value) {
 8000aac:	7a1a      	ldrb	r2, [r3, #8]
 8000aae:	4282      	cmp	r2, r0
			op[0][voice_index].note_value = -1;
 8000ab0:	bf04      	itt	eq
 8000ab2:	22ff      	moveq	r2, #255	; 0xff
 8000ab4:	721a      	strbeq	r2, [r3, #8]
		if (op[0][voice_index].note_value == note_value) {
 8000ab6:	7c1a      	ldrb	r2, [r3, #16]
 8000ab8:	4282      	cmp	r2, r0
			op[0][voice_index].note_value = -1;
 8000aba:	bf04      	itt	eq
 8000abc:	22ff      	moveq	r2, #255	; 0xff
 8000abe:	741a      	strbeq	r2, [r3, #16]
		if (op[0][voice_index].note_value == note_value) {
 8000ac0:	7e1a      	ldrb	r2, [r3, #24]
 8000ac2:	4282      	cmp	r2, r0
			op[0][voice_index].note_value = -1;
 8000ac4:	bf04      	itt	eq
 8000ac6:	22ff      	moveq	r2, #255	; 0xff
 8000ac8:	761a      	strbeq	r2, [r3, #24]
		if (op[0][voice_index].note_value == note_value) {
 8000aca:	f893 2020 	ldrb.w	r2, [r3, #32]
 8000ace:	4282      	cmp	r2, r0
			op[0][voice_index].note_value = -1;
 8000ad0:	bf04      	itt	eq
 8000ad2:	22ff      	moveq	r2, #255	; 0xff
 8000ad4:	f883 2020 	strbeq.w	r2, [r3, #32]
		if (op[0][voice_index].note_value == note_value) {
 8000ad8:	f893 2028 	ldrb.w	r2, [r3, #40]	; 0x28
 8000adc:	4282      	cmp	r2, r0
			op[0][voice_index].note_value = -1;
 8000ade:	bf04      	itt	eq
 8000ae0:	22ff      	moveq	r2, #255	; 0xff
 8000ae2:	f883 2028 	strbeq.w	r2, [r3, #40]	; 0x28
		if (op[0][voice_index].note_value == note_value) {
 8000ae6:	f893 2030 	ldrb.w	r2, [r3, #48]	; 0x30
 8000aea:	4282      	cmp	r2, r0
			op[0][voice_index].note_value = -1;
 8000aec:	bf04      	itt	eq
 8000aee:	22ff      	moveq	r2, #255	; 0xff
 8000af0:	f883 2030 	strbeq.w	r2, [r3, #48]	; 0x30
		if (op[0][voice_index].note_value == note_value) {
 8000af4:	f893 2038 	ldrb.w	r2, [r3, #56]	; 0x38
 8000af8:	4282      	cmp	r2, r0
			op[0][voice_index].note_value = -1;
 8000afa:	bf04      	itt	eq
 8000afc:	22ff      	moveq	r2, #255	; 0xff
 8000afe:	f883 2038 	strbeq.w	r2, [r3, #56]	; 0x38
		if (op[0][voice_index].note_value == note_value) {
 8000b02:	f893 2040 	ldrb.w	r2, [r3, #64]	; 0x40
 8000b06:	4282      	cmp	r2, r0
			op[0][voice_index].note_value = -1;
 8000b08:	bf04      	itt	eq
 8000b0a:	22ff      	moveq	r2, #255	; 0xff
 8000b0c:	f883 2040 	strbeq.w	r2, [r3, #64]	; 0x40
		if (op[0][voice_index].note_value == note_value) {
 8000b10:	f893 2048 	ldrb.w	r2, [r3, #72]	; 0x48
 8000b14:	4282      	cmp	r2, r0
			op[0][voice_index].note_value = -1;
 8000b16:	bf04      	itt	eq
 8000b18:	22ff      	moveq	r2, #255	; 0xff
 8000b1a:	f883 2048 	strbeq.w	r2, [r3, #72]	; 0x48
		if (op[0][voice_index].note_value == note_value) {
 8000b1e:	f893 2050 	ldrb.w	r2, [r3, #80]	; 0x50
 8000b22:	4282      	cmp	r2, r0
			op[0][voice_index].note_value = -1;
 8000b24:	bf04      	itt	eq
 8000b26:	22ff      	moveq	r2, #255	; 0xff
 8000b28:	f883 2050 	strbeq.w	r2, [r3, #80]	; 0x50
		if (op[0][voice_index].note_value == note_value) {
 8000b2c:	f893 2058 	ldrb.w	r2, [r3, #88]	; 0x58
 8000b30:	4282      	cmp	r2, r0
			op[0][voice_index].note_value = -1;
 8000b32:	bf04      	itt	eq
 8000b34:	22ff      	moveq	r2, #255	; 0xff
 8000b36:	f883 2058 	strbeq.w	r2, [r3, #88]	; 0x58
		if (op[0][voice_index].note_value == note_value) {
 8000b3a:	f893 2060 	ldrb.w	r2, [r3, #96]	; 0x60
 8000b3e:	4282      	cmp	r2, r0
			op[0][voice_index].note_value = -1;
 8000b40:	bf04      	itt	eq
 8000b42:	22ff      	moveq	r2, #255	; 0xff
 8000b44:	f883 2060 	strbeq.w	r2, [r3, #96]	; 0x60
		if (op[0][voice_index].note_value == note_value) {
 8000b48:	f893 2068 	ldrb.w	r2, [r3, #104]	; 0x68
 8000b4c:	4282      	cmp	r2, r0
			op[0][voice_index].note_value = -1;
 8000b4e:	bf04      	itt	eq
 8000b50:	22ff      	moveq	r2, #255	; 0xff
 8000b52:	f883 2068 	strbeq.w	r2, [r3, #104]	; 0x68
		if (op[0][voice_index].note_value == note_value) {
 8000b56:	f893 2070 	ldrb.w	r2, [r3, #112]	; 0x70
 8000b5a:	4282      	cmp	r2, r0
			op[0][voice_index].note_value = -1;
 8000b5c:	bf04      	itt	eq
 8000b5e:	22ff      	moveq	r2, #255	; 0xff
 8000b60:	f883 2070 	strbeq.w	r2, [r3, #112]	; 0x70
		if (op[0][voice_index].note_value == note_value) {
 8000b64:	f893 2078 	ldrb.w	r2, [r3, #120]	; 0x78
 8000b68:	4282      	cmp	r2, r0
			op[0][voice_index].note_value = -1;
 8000b6a:	bf04      	itt	eq
 8000b6c:	22ff      	moveq	r2, #255	; 0xff
 8000b6e:	f883 2078 	strbeq.w	r2, [r3, #120]	; 0x78
		}
	}
//	for (uint8_t op_index = 0; op_index < MAX_OPERATORS; op_index++) {
//		op[op_index][voice_index].note_value = -1;
//	}
}
 8000b72:	4770      	bx	lr
 8000b74:	20000034 	.word	0x20000034

08000b78 <synth_sample>:

int16_t synth_sample() {
	int16_t output_volume = 0x0800;
 8000b78:	f44f 6000 	mov.w	r0, #2048	; 0x800
int16_t synth_sample() {
 8000b7c:	e92d 4ff0 	stmdb	sp!, {r4, r5, r6, r7, r8, r9, sl, fp, lr}
		op1 = (int16_t)get_sample(op[1][voice_index].phase >> 8)*op_amp[1] >> 8;
		op0 = (int16_t)get_sample(op[0][voice_index].phase >> 8)*op_amp[0] >> 8;
		return ((int16_t)op2 + op1 + op0) / 3;
		break;
	case 0x0B:
		op3 = (int16_t)get_sample(op[3][voice_index].phase >> 8)*op_amp[3] >> 8;
 8000b80:	4ad1      	ldr	r2, [pc, #836]	; (8000ec8 <synth_sample+0x350>)
	switch (algo) {
 8000b82:	49d2      	ldr	r1, [pc, #840]	; (8000ecc <synth_sample+0x354>)
 8000b84:	4bd2      	ldr	r3, [pc, #840]	; (8000ed0 <synth_sample+0x358>)
 8000b86:	780e      	ldrb	r6, [r1, #0]
		op3 = (int16_t)get_sample(op[3][voice_index].phase >> 8)*op_amp[3] >> 8;
 8000b88:	f892 a003 	ldrb.w	sl, [r2, #3]
		op2 = (int16_t)get_sample(op[2][voice_index].phase >> 8)*op_amp[2] >> 8;
		op1 = (int16_t)get_sample(op[1][voice_index].phase >> 8)*op_amp[1] >> 8;
 8000b8c:	7851      	ldrb	r1, [r2, #1]
		op2 = (int16_t)get_sample(op[2][voice_index].phase >> 8)*op_amp[2] >> 8;
 8000b8e:	f892 9002 	ldrb.w	r9, [r2, #2]
		op0 = (int16_t)get_sample(op[0][voice_index].phase >> 8)*op_amp[0] >> 8;
 8000b92:	7812      	ldrb	r2, [r2, #0]
 8000b94:	b083      	sub	sp, #12
};

uint16_t note_to_freq(uint8_t note_value);
uint16_t calculate_delta(uint16_t freq);
static inline uint16_t update_phase(uint16_t delta, uint16_t phase) { return delta + phase; };
static inline int8_t get_sample(uint8_t phase_integer) { return SINE_TABLE[phase_integer]; };
 8000b96:	f8df 8340 	ldr.w	r8, [pc, #832]	; 8000ed8 <synth_sample+0x360>
static inline int8_t get_mod_sample(uint8_t phase_integer) { return SINE_MOD_TABLE[phase_integer]; };
 8000b9a:	f8df e340 	ldr.w	lr, [pc, #832]	; 8000edc <synth_sample+0x364>
		op1 = (int16_t)get_sample(op[1][voice_index].phase >> 8)*op_amp[1] >> 8;
 8000b9e:	9100      	str	r1, [sp, #0]
		op0 = (int16_t)get_sample(op[0][voice_index].phase >> 8)*op_amp[0] >> 8;
 8000ba0:	9201      	str	r2, [sp, #4]
 8000ba2:	f103 0580 	add.w	r5, r3, #128	; 0x80
	for (uint8_t voice_index = 0; voice_index < MAX_VOICES; voice_index++) {	//loop through all voices
		if (op[0][voice_index].note_value != (uint8_t)-1) {							//if the voice is active
 8000ba6:	781a      	ldrb	r2, [r3, #0]
 8000ba8:	2aff      	cmp	r2, #255	; 0xff
 8000baa:	d04f      	beq.n	8000c4c <synth_sample+0xd4>
static inline uint16_t update_phase(uint16_t delta, uint16_t phase) { return delta + phase; };
 8000bac:	88df      	ldrh	r7, [r3, #6]
 8000bae:	f8b3 4086 	ldrh.w	r4, [r3, #134]	; 0x86
 8000bb2:	f8b3 b084 	ldrh.w	fp, [r3, #132]	; 0x84
 8000bb6:	8899      	ldrh	r1, [r3, #4]
 8000bb8:	f8b3 c106 	ldrh.w	ip, [r3, #262]	; 0x106
 8000bbc:	4439      	add	r1, r7
 8000bbe:	445c      	add	r4, fp
 8000bc0:	f8b3 2104 	ldrh.w	r2, [r3, #260]	; 0x104
 8000bc4:	f8b3 b186 	ldrh.w	fp, [r3, #390]	; 0x186
 8000bc8:	f8b3 7184 	ldrh.w	r7, [r3, #388]	; 0x184
 8000bcc:	4462      	add	r2, ip
 8000bce:	445f      	add	r7, fp
 8000bd0:	b289      	uxth	r1, r1
 8000bd2:	b2a4      	uxth	r4, r4
 8000bd4:	b292      	uxth	r2, r2
 8000bd6:	b2bf      	uxth	r7, r7
		op[op_index][voice_index].phase = update_phase(op[op_index][voice_index].delta, op[op_index][voice_index].phase);
 8000bd8:	80d9      	strh	r1, [r3, #6]
 8000bda:	f8a3 4086 	strh.w	r4, [r3, #134]	; 0x86
 8000bde:	f8a3 2106 	strh.w	r2, [r3, #262]	; 0x106
 8000be2:	f8a3 7186 	strh.w	r7, [r3, #390]	; 0x186
	switch (algo) {
 8000be6:	2e0b      	cmp	r6, #11
 8000be8:	f200 816c 	bhi.w	8000ec4 <synth_sample+0x34c>
 8000bec:	e8df f016 	tbh	[pc, r6, lsl #1]
 8000bf0:	0156013c 	.word	0x0156013c
 8000bf4:	00ff0123 	.word	0x00ff0123
 8000bf8:	00c900de 	.word	0x00c900de
 8000bfc:	008200a4 	.word	0x008200a4
 8000c00:	0059006c 	.word	0x0059006c
 8000c04:	000c0034 	.word	0x000c0034
static inline int8_t get_sample(uint8_t phase_integer) { return SINE_TABLE[phase_integer]; };
 8000c08:	0a12      	lsrs	r2, r2, #8
		op2 = (int16_t)get_sample(op[2][voice_index].phase >> 8)*op_amp[2] >> 8;
 8000c0a:	f918 2002 	ldrsb.w	r2, [r8, r2]
 8000c0e:	0a3f      	lsrs	r7, r7, #8
 8000c10:	0a24      	lsrs	r4, r4, #8
 8000c12:	fb09 fc02 	mul.w	ip, r9, r2
		op3 = (int16_t)get_sample(op[3][voice_index].phase >> 8)*op_amp[3] >> 8;
 8000c16:	f918 7007 	ldrsb.w	r7, [r8, r7]
		op1 = (int16_t)get_sample(op[1][voice_index].phase >> 8)*op_amp[1] >> 8;
 8000c1a:	9a00      	ldr	r2, [sp, #0]
 8000c1c:	f918 4004 	ldrsb.w	r4, [r8, r4]
 8000c20:	0a09      	lsrs	r1, r1, #8
 8000c22:	fb02 f404 	mul.w	r4, r2, r4
		op3 = (int16_t)get_sample(op[3][voice_index].phase >> 8)*op_amp[3] >> 8;
 8000c26:	fb0a f707 	mul.w	r7, sl, r7
		op0 = (int16_t)get_sample(op[0][voice_index].phase >> 8)*op_amp[0] >> 8;
 8000c2a:	9a01      	ldr	r2, [sp, #4]
 8000c2c:	f918 1001 	ldrsb.w	r1, [r8, r1]
 8000c30:	fb02 f101 	mul.w	r1, r2, r1
		op2 = (int16_t)get_sample(op[2][voice_index].phase >> 8)*op_amp[2] >> 8;
 8000c34:	ea4f 222c 	mov.w	r2, ip, asr #8
		return ((int16_t)op3 + op2 + op1 + op0) >> 2;
 8000c38:	eb02 2227 	add.w	r2, r2, r7, asr #8
 8000c3c:	eb02 2224 	add.w	r2, r2, r4, asr #8
 8000c40:	eb02 2221 	add.w	r2, r2, r1, asr #8
 8000c44:	f3c2 028f 	ubfx	r2, r2, #2, #16
			output_volume += modulate(voice_index);
 8000c48:	4410      	add	r0, r2
 8000c4a:	b200      	sxth	r0, r0
	for (uint8_t voice_index = 0; voice_index < MAX_VOICES; voice_index++) {	//loop through all voices
 8000c4c:	3308      	adds	r3, #8
 8000c4e:	429d      	cmp	r5, r3
 8000c50:	d1a9      	bne.n	8000ba6 <synth_sample+0x2e>
		}
	}
	return output_volume;
}
 8000c52:	b003      	add	sp, #12
 8000c54:	e8bd 8ff0 	ldmia.w	sp!, {r4, r5, r6, r7, r8, r9, sl, fp, pc}
static inline int8_t get_mod_sample(uint8_t phase_integer) { return SINE_MOD_TABLE[phase_integer]; };
 8000c58:	0a3f      	lsrs	r7, r7, #8
		op3 = (int16_t)get_mod_sample(op[3][voice_index].phase >> 8)*op_amp[3] >> 8;
 8000c5a:	f91e 7007 	ldrsb.w	r7, [lr, r7]
		op2 = (int16_t)get_sample((op[2][voice_index].phase >> 8) + op3)*op_amp[2] >> 8;
 8000c5e:	0a12      	lsrs	r2, r2, #8
		op3 = (int16_t)get_mod_sample(op[3][voice_index].phase >> 8)*op_amp[3] >> 8;
 8000c60:	fb0a f707 	mul.w	r7, sl, r7
		op2 = (int16_t)get_sample((op[2][voice_index].phase >> 8) + op3)*op_amp[2] >> 8;
 8000c64:	eb02 2727 	add.w	r7, r2, r7, asr #8
static inline int8_t get_sample(uint8_t phase_integer) { return SINE_TABLE[phase_integer]; };
 8000c68:	0a24      	lsrs	r4, r4, #8
 8000c6a:	b2ff      	uxtb	r7, r7
		op1 = (int16_t)get_sample(op[1][voice_index].phase >> 8)*op_amp[1] >> 8;
 8000c6c:	f918 2004 	ldrsb.w	r2, [r8, r4]
		op2 = (int16_t)get_sample((op[2][voice_index].phase >> 8) + op3)*op_amp[2] >> 8;
 8000c70:	f918 4007 	ldrsb.w	r4, [r8, r7]
 8000c74:	0a09      	lsrs	r1, r1, #8
		op1 = (int16_t)get_sample(op[1][voice_index].phase >> 8)*op_amp[1] >> 8;
 8000c76:	9f00      	ldr	r7, [sp, #0]
		op0 = (int16_t)get_sample(op[0][voice_index].phase >> 8)*op_amp[0] >> 8;
 8000c78:	f918 1001 	ldrsb.w	r1, [r8, r1]
		op1 = (int16_t)get_sample(op[1][voice_index].phase >> 8)*op_amp[1] >> 8;
 8000c7c:	fb07 f202 	mul.w	r2, r7, r2
		op0 = (int16_t)get_sample(op[0][voice_index].phase >> 8)*op_amp[0] >> 8;
 8000c80:	9f01      	ldr	r7, [sp, #4]
		op2 = (int16_t)get_sample((op[2][voice_index].phase >> 8) + op3)*op_amp[2] >> 8;
 8000c82:	fb09 f404 	mul.w	r4, r9, r4
		op0 = (int16_t)get_sample(op[0][voice_index].phase >> 8)*op_amp[0] >> 8;
 8000c86:	fb07 f101 	mul.w	r1, r7, r1
		op1 = (int16_t)get_sample(op[1][voice_index].phase >> 8)*op_amp[1] >> 8;
 8000c8a:	1212      	asrs	r2, r2, #8
		return ((int16_t)op2 + op1 + op0) / 3;
 8000c8c:	eb02 2224 	add.w	r2, r2, r4, asr #8
 8000c90:	eb02 2121 	add.w	r1, r2, r1, asr #8
 8000c94:	4a8f      	ldr	r2, [pc, #572]	; (8000ed4 <synth_sample+0x35c>)
 8000c96:	fb82 4201 	smull	r4, r2, r2, r1
 8000c9a:	eba2 72e1 	sub.w	r2, r2, r1, asr #31
 8000c9e:	b292      	uxth	r2, r2
 8000ca0:	e7d2      	b.n	8000c48 <synth_sample+0xd0>
static inline int8_t get_mod_sample(uint8_t phase_integer) { return SINE_MOD_TABLE[phase_integer]; };
 8000ca2:	0a3f      	lsrs	r7, r7, #8
		op3 = (int16_t)get_mod_sample(op[3][voice_index].phase >> 8)*op_amp[3] >> 8;
 8000ca4:	f91e 7007 	ldrsb.w	r7, [lr, r7]
static inline int8_t get_sample(uint8_t phase_integer) { return SINE_TABLE[phase_integer]; };
 8000ca8:	0a09      	lsrs	r1, r1, #8
 8000caa:	fb0a f707 	mul.w	r7, sl, r7
		op2 = (int16_t)get_sample((op[2][voice_index].phase >> 8) + op3)*op_amp[2] >> 8;
 8000cae:	f3c7 2707 	ubfx	r7, r7, #8, #8
		op1 = (int16_t)get_sample((op[1][voice_index].phase >> 8) + op3)*op_amp[1] >> 8;
 8000cb2:	eb07 2414 	add.w	r4, r7, r4, lsr #8
		op2 = (int16_t)get_sample((op[2][voice_index].phase >> 8) + op3)*op_amp[2] >> 8;
 8000cb6:	eb07 2712 	add.w	r7, r7, r2, lsr #8
 8000cba:	b2e4      	uxtb	r4, r4
 8000cbc:	b2ff      	uxtb	r7, r7
		op1 = (int16_t)get_sample((op[1][voice_index].phase >> 8) + op3)*op_amp[1] >> 8;
 8000cbe:	f918 2004 	ldrsb.w	r2, [r8, r4]
		op2 = (int16_t)get_sample((op[2][voice_index].phase >> 8) + op3)*op_amp[2] >> 8;
 8000cc2:	f918 4007 	ldrsb.w	r4, [r8, r7]
 8000cc6:	e7d6      	b.n	8000c76 <synth_sample+0xfe>
static inline int8_t get_mod_sample(uint8_t phase_integer) { return SINE_MOD_TABLE[phase_integer]; };
 8000cc8:	0a3f      	lsrs	r7, r7, #8
		op3 = (int16_t)get_mod_sample(op[3][voice_index].phase >> 8)*op_amp[3] >> 8;
 8000cca:	f91e 7007 	ldrsb.w	r7, [lr, r7]
 8000cce:	fb0a f707 	mul.w	r7, sl, r7
		op2 = (int16_t)get_sample((op[2][voice_index].phase >> 8) + op3)*op_amp[2] >> 8;
 8000cd2:	f3c7 2707 	ubfx	r7, r7, #8, #8
 8000cd6:	eb07 2c12 	add.w	ip, r7, r2, lsr #8
		op1 = (int16_t)get_sample((op[1][voice_index].phase >> 8) + op3)*op_amp[1] >> 8;
 8000cda:	eb07 2414 	add.w	r4, r7, r4, lsr #8
static inline int8_t get_sample(uint8_t phase_integer) { return SINE_TABLE[phase_integer]; };
 8000cde:	b2e4      	uxtb	r4, r4
 8000ce0:	fa5f fc8c 	uxtb.w	ip, ip
		op0 = (int16_t)get_sample((op[0][voice_index].phase >> 8) + op3)*op_amp[0] >> 8;
 8000ce4:	eb07 2111 	add.w	r1, r7, r1, lsr #8
		op1 = (int16_t)get_sample((op[1][voice_index].phase >> 8) + op3)*op_amp[1] >> 8;
 8000ce8:	f918 2004 	ldrsb.w	r2, [r8, r4]
 8000cec:	b2c9      	uxtb	r1, r1
		op2 = (int16_t)get_sample((op[2][voice_index].phase >> 8) + op3)*op_amp[2] >> 8;
 8000cee:	f918 400c 	ldrsb.w	r4, [r8, ip]
 8000cf2:	e7c0      	b.n	8000c76 <synth_sample+0xfe>
static inline int8_t get_mod_sample(uint8_t phase_integer) { return SINE_MOD_TABLE[phase_integer]; };
 8000cf4:	0a3f      	lsrs	r7, r7, #8
 8000cf6:	0a24      	lsrs	r4, r4, #8
		op3 = (int16_t)get_mod_sample(op[3][voice_index].phase >> 8)*op_amp[3] >> 8;
 8000cf8:	f91e c007 	ldrsb.w	ip, [lr, r7]
		op1 = (int16_t)get_mod_sample(op[1][voice_index].phase >> 8)*op_amp[1] >> 8;
 8000cfc:	f91e 4004 	ldrsb.w	r4, [lr, r4]
 8000d00:	9f00      	ldr	r7, [sp, #0]
		op0 = (int16_t)get_sample((op[0][voice_index].phase >> 8) + op1)*op_amp[0] >> 8;
 8000d02:	0a09      	lsrs	r1, r1, #8
		op1 = (int16_t)get_mod_sample(op[1][voice_index].phase >> 8)*op_amp[1] >> 8;
 8000d04:	fb07 f404 	mul.w	r4, r7, r4
		op3 = (int16_t)get_mod_sample(op[3][voice_index].phase >> 8)*op_amp[3] >> 8;
 8000d08:	fb0a f70c 	mul.w	r7, sl, ip
		op0 = (int16_t)get_sample((op[0][voice_index].phase >> 8) + op1)*op_amp[0] >> 8;
 8000d0c:	eb01 2424 	add.w	r4, r1, r4, asr #8
		op2 = (int16_t)get_sample((op[2][voice_index].phase >> 8) + op3)*op_amp[2] >> 8;
 8000d10:	0a12      	lsrs	r2, r2, #8
static inline int8_t get_sample(uint8_t phase_integer) { return SINE_TABLE[phase_integer]; };
 8000d12:	b2e4      	uxtb	r4, r4
 8000d14:	eb02 2127 	add.w	r1, r2, r7, asr #8
 8000d18:	b2c9      	uxtb	r1, r1
		op0 = (int16_t)get_sample((op[0][voice_index].phase >> 8) + op1)*op_amp[0] >> 8;
 8000d1a:	f918 2004 	ldrsb.w	r2, [r8, r4]
 8000d1e:	9c01      	ldr	r4, [sp, #4]
		op2 = (int16_t)get_sample((op[2][voice_index].phase >> 8) + op3)*op_amp[2] >> 8;
 8000d20:	f918 1001 	ldrsb.w	r1, [r8, r1]
		op0 = (int16_t)get_sample((op[0][voice_index].phase >> 8) + op1)*op_amp[0] >> 8;
 8000d24:	fb04 f202 	mul.w	r2, r4, r2
		op2 = (int16_t)get_sample((op[2][voice_index].phase >> 8) + op3)*op_amp[2] >> 8;
 8000d28:	fb09 f101 	mul.w	r1, r9, r1
		op0 = (int16_t)get_sample((op[0][voice_index].phase >> 8) + op1)*op_amp[0] >> 8;
 8000d2c:	1212      	asrs	r2, r2, #8
		return ((int16_t)op2 + op0) >> 1;
 8000d2e:	eb02 2221 	add.w	r2, r2, r1, asr #8
 8000d32:	f3c2 024f 	ubfx	r2, r2, #1, #16
 8000d36:	e787      	b.n	8000c48 <synth_sample+0xd0>
static inline int8_t get_mod_sample(uint8_t phase_integer) { return SINE_MOD_TABLE[phase_integer]; };
 8000d38:	0a3f      	lsrs	r7, r7, #8
		op3 = (int16_t)get_mod_sample(op[3][voice_index].phase >> 8)*op_amp[3] >> 8;
 8000d3a:	f91e 7007 	ldrsb.w	r7, [lr, r7]
		op2 = (int16_t)get_mod_sample((op[2][voice_index].phase >> 8) + op3)*op_amp[2] >> 8;
 8000d3e:	0a12      	lsrs	r2, r2, #8
		op3 = (int16_t)get_mod_sample(op[3][voice_index].phase >> 8)*op_amp[3] >> 8;
 8000d40:	fb0a f707 	mul.w	r7, sl, r7
		op2 = (int16_t)get_mod_sample((op[2][voice_index].phase >> 8) + op3)*op_amp[2] >> 8;
 8000d44:	eb02 2227 	add.w	r2, r2, r7, asr #8
 8000d48:	b2d2      	uxtb	r2, r2
 8000d4a:	f91e 2002 	ldrsb.w	r2, [lr, r2]
 8000d4e:	fb09 f202 	mul.w	r2, r9, r2
		op1 = (int16_t)get_sample((op[1][voice_index].phase >> 8) + op2)*op_amp[1] >> 8;
 8000d52:	f3c2 2207 	ubfx	r2, r2, #8, #8
		op0 = (int16_t)get_sample((op[0][voice_index].phase >> 8) + op2)*op_amp[0] >> 8;
 8000d56:	eb02 2111 	add.w	r1, r2, r1, lsr #8
static inline int8_t get_sample(uint8_t phase_integer) { return SINE_TABLE[phase_integer]; };
 8000d5a:	b2c9      	uxtb	r1, r1
		op1 = (int16_t)get_sample((op[1][voice_index].phase >> 8) + op2)*op_amp[1] >> 8;
 8000d5c:	eb02 2414 	add.w	r4, r2, r4, lsr #8
		op0 = (int16_t)get_sample((op[0][voice_index].phase >> 8) + op2)*op_amp[0] >> 8;
 8000d60:	f918 2001 	ldrsb.w	r2, [r8, r1]
 8000d64:	b2e4      	uxtb	r4, r4
		op1 = (int16_t)get_sample((op[1][voice_index].phase >> 8) + op2)*op_amp[1] >> 8;
 8000d66:	f918 1004 	ldrsb.w	r1, [r8, r4]
		op0 = (int16_t)get_sample((op[0][voice_index].phase >> 8) + op2)*op_amp[0] >> 8;
 8000d6a:	9c01      	ldr	r4, [sp, #4]
 8000d6c:	fb04 f202 	mul.w	r2, r4, r2
		op1 = (int16_t)get_sample((op[1][voice_index].phase >> 8) + op2)*op_amp[1] >> 8;
 8000d70:	9c00      	ldr	r4, [sp, #0]
		op0 = (int16_t)get_sample((op[0][voice_index].phase >> 8) + op2)*op_amp[0] >> 8;
 8000d72:	1212      	asrs	r2, r2, #8
		op1 = (int16_t)get_sample((op[1][voice_index].phase >> 8) + op2)*op_amp[1] >> 8;
 8000d74:	fb04 f101 	mul.w	r1, r4, r1
		return ((int16_t)op1 + op0) >> 1;
 8000d78:	eb02 2221 	add.w	r2, r2, r1, asr #8
 8000d7c:	f3c2 024f 	ubfx	r2, r2, #1, #16
 8000d80:	e762      	b.n	8000c48 <synth_sample+0xd0>
static inline int8_t get_mod_sample(uint8_t phase_integer) { return SINE_MOD_TABLE[phase_integer]; };
 8000d82:	0a3f      	lsrs	r7, r7, #8
		op3 = (int16_t)get_mod_sample(op[3][voice_index].phase >> 8)*op_amp[3] >> 8;
 8000d84:	f91e 7007 	ldrsb.w	r7, [lr, r7]
		op2 = (int16_t)get_mod_sample((op[2][voice_index].phase >> 8) + op3)*op_amp[2] >> 8;
 8000d88:	0a12      	lsrs	r2, r2, #8
		op3 = (int16_t)get_mod_sample(op[3][voice_index].phase >> 8)*op_amp[3] >> 8;
 8000d8a:	fb0a f707 	mul.w	r7, sl, r7
		op2 = (int16_t)get_mod_sample((op[2][voice_index].phase >> 8) + op3)*op_amp[2] >> 8;
 8000d8e:	eb02 2227 	add.w	r2, r2, r7, asr #8
 8000d92:	b2d2      	uxtb	r2, r2
 8000d94:	f91e 2002 	ldrsb.w	r2, [lr, r2]
		op1 = (int16_t)get_sample((op[1][voice_index].phase >> 8) + op2)*op_amp[1] >> 8;
 8000d98:	0a24      	lsrs	r4, r4, #8
		op2 = (int16_t)get_mod_sample((op[2][voice_index].phase >> 8) + op3)*op_amp[2] >> 8;
 8000d9a:	fb09 f202 	mul.w	r2, r9, r2
static inline int8_t get_sample(uint8_t phase_integer) { return SINE_TABLE[phase_integer]; };
 8000d9e:	0a09      	lsrs	r1, r1, #8
		op1 = (int16_t)get_sample((op[1][voice_index].phase >> 8) + op2)*op_amp[1] >> 8;
 8000da0:	eb04 2422 	add.w	r4, r4, r2, asr #8
 8000da4:	b2e4      	uxtb	r4, r4
		op0 = (int16_t)get_sample(op[0][voice_index].phase >> 8)*op_amp[0] >> 8;
 8000da6:	f918 2001 	ldrsb.w	r2, [r8, r1]
 8000daa:	e7dc      	b.n	8000d66 <synth_sample+0x1ee>
static inline int8_t get_mod_sample(uint8_t phase_integer) { return SINE_MOD_TABLE[phase_integer]; };
 8000dac:	0a12      	lsrs	r2, r2, #8
		op2 = (int16_t)get_mod_sample(op[2][voice_index].phase >> 8)*op_amp[2] >> 8;
 8000dae:	f91e 2002 	ldrsb.w	r2, [lr, r2]
 8000db2:	0a3f      	lsrs	r7, r7, #8
 8000db4:	fb09 f202 	mul.w	r2, r9, r2
		op3 = (int16_t)get_mod_sample(op[3][voice_index].phase >> 8)*op_amp[3] >> 8;
 8000db8:	f91e 7007 	ldrsb.w	r7, [lr, r7]
 8000dbc:	0a24      	lsrs	r4, r4, #8
		op2 = (int16_t)get_mod_sample(op[2][voice_index].phase >> 8)*op_amp[2] >> 8;
 8000dbe:	ea4f 2c22 	mov.w	ip, r2, asr #8
		op3 = (int16_t)get_mod_sample(op[3][voice_index].phase >> 8)*op_amp[3] >> 8;
 8000dc2:	fb0a f707 	mul.w	r7, sl, r7
		op1 = (int16_t)get_mod_sample(op[1][voice_index].phase >> 8)*op_amp[1] >> 8;
 8000dc6:	9a00      	ldr	r2, [sp, #0]
 8000dc8:	f91e 4004 	ldrsb.w	r4, [lr, r4]
 8000dcc:	fb02 f404 	mul.w	r4, r2, r4
		op0 = (int16_t)get_sample((op[0][voice_index].phase >> 8) + op3 + op2 + op1)*op_amp[0] >> 8;
 8000dd0:	eb0c 2227 	add.w	r2, ip, r7, asr #8
 8000dd4:	eb02 2211 	add.w	r2, r2, r1, lsr #8
 8000dd8:	eb02 2224 	add.w	r2, r2, r4, asr #8
static inline int8_t get_sample(uint8_t phase_integer) { return SINE_TABLE[phase_integer]; };
 8000ddc:	b2d2      	uxtb	r2, r2
		op0 = (int16_t)get_sample((op[0][voice_index].phase >> 8) + op1)*op_amp[0] >> 8;
 8000dde:	f918 2002 	ldrsb.w	r2, [r8, r2]
 8000de2:	9901      	ldr	r1, [sp, #4]
 8000de4:	fb01 f202 	mul.w	r2, r1, r2
 8000de8:	f3c2 220f 	ubfx	r2, r2, #8, #16
		return op0;
 8000dec:	e72c      	b.n	8000c48 <synth_sample+0xd0>
static inline int8_t get_mod_sample(uint8_t phase_integer) { return SINE_MOD_TABLE[phase_integer]; };
 8000dee:	0a3f      	lsrs	r7, r7, #8
		op3 = (int16_t)get_mod_sample(op[3][voice_index].phase >> 8)*op_amp[3] >> 8;
 8000df0:	f91e 7007 	ldrsb.w	r7, [lr, r7]
 8000df4:	fb0a f707 	mul.w	r7, sl, r7
		op2 = (int16_t)get_mod_sample((op[2][voice_index].phase >> 8) + op3)*op_amp[2] >> 8;
 8000df8:	f3c7 2707 	ubfx	r7, r7, #8, #8
		op1 = (int16_t)get_mod_sample((op[1][voice_index].phase >> 8) + op3)*op_amp[1] >> 8;
 8000dfc:	eb07 2414 	add.w	r4, r7, r4, lsr #8
		op2 = (int16_t)get_mod_sample((op[2][voice_index].phase >> 8) + op3)*op_amp[2] >> 8;
 8000e00:	eb07 2712 	add.w	r7, r7, r2, lsr #8
 8000e04:	b2e4      	uxtb	r4, r4
 8000e06:	b2ff      	uxtb	r7, r7
		op1 = (int16_t)get_mod_sample((op[1][voice_index].phase >> 8) + op3)*op_amp[1] >> 8;
 8000e08:	f91e 2004 	ldrsb.w	r2, [lr, r4]
		op2 = (int16_t)get_mod_sample((op[2][voice_index].phase >> 8) + op3)*op_amp[2] >> 8;
 8000e0c:	f91e 4007 	ldrsb.w	r4, [lr, r7]
		op1 = (int16_t)get_mod_sample((op[1][voice_index].phase >> 8) + op3)*op_amp[1] >> 8;
 8000e10:	9f00      	ldr	r7, [sp, #0]
		op2 = (int16_t)get_mod_sample((op[2][voice_index].phase >> 8) + op3)*op_amp[2] >> 8;
 8000e12:	fb09 f404 	mul.w	r4, r9, r4
		op1 = (int16_t)get_mod_sample((op[1][voice_index].phase >> 8) + op3)*op_amp[1] >> 8;
 8000e16:	fb07 f202 	mul.w	r2, r7, r2
 8000e1a:	1212      	asrs	r2, r2, #8
		op0 = (int16_t)get_sample((op[0][voice_index].phase >> 8) + op2 + op1)*op_amp[0] >> 8;
 8000e1c:	eb02 2224 	add.w	r2, r2, r4, asr #8
 8000e20:	eb02 2111 	add.w	r1, r2, r1, lsr #8
static inline int8_t get_sample(uint8_t phase_integer) { return SINE_TABLE[phase_integer]; };
 8000e24:	b2c9      	uxtb	r1, r1
 8000e26:	f918 2001 	ldrsb.w	r2, [r8, r1]
 8000e2a:	9901      	ldr	r1, [sp, #4]
 8000e2c:	fb01 f202 	mul.w	r2, r1, r2
 8000e30:	f3c2 220f 	ubfx	r2, r2, #8, #16
		return op0;
 8000e34:	e708      	b.n	8000c48 <synth_sample+0xd0>
static inline int8_t get_mod_sample(uint8_t phase_integer) { return SINE_MOD_TABLE[phase_integer]; };
 8000e36:	0a12      	lsrs	r2, r2, #8
		op2 = (int16_t)get_mod_sample(op[2][voice_index].phase >> 8)*op_amp[2] >> 8;
 8000e38:	f91e 2002 	ldrsb.w	r2, [lr, r2]
		op1 = (int16_t)get_mod_sample((op[1][voice_index].phase >> 8) + op2)*op_amp[1] >> 8;
 8000e3c:	0a24      	lsrs	r4, r4, #8
		op2 = (int16_t)get_mod_sample(op[2][voice_index].phase >> 8)*op_amp[2] >> 8;
 8000e3e:	fb09 f202 	mul.w	r2, r9, r2
 8000e42:	0a3f      	lsrs	r7, r7, #8
		op1 = (int16_t)get_mod_sample((op[1][voice_index].phase >> 8) + op2)*op_amp[1] >> 8;
 8000e44:	eb04 2422 	add.w	r4, r4, r2, asr #8
 8000e48:	b2e4      	uxtb	r4, r4
		op3 = (int16_t)get_mod_sample(op[3][voice_index].phase >> 8)*op_amp[3] >> 8;
 8000e4a:	f91e 2007 	ldrsb.w	r2, [lr, r7]
		op1 = (int16_t)get_mod_sample((op[1][voice_index].phase >> 8) + op2)*op_amp[1] >> 8;
 8000e4e:	f91e 4004 	ldrsb.w	r4, [lr, r4]
 8000e52:	9f00      	ldr	r7, [sp, #0]
		op3 = (int16_t)get_mod_sample(op[3][voice_index].phase >> 8)*op_amp[3] >> 8;
 8000e54:	fb0a f202 	mul.w	r2, sl, r2
		op1 = (int16_t)get_mod_sample((op[1][voice_index].phase >> 8) + op2)*op_amp[1] >> 8;
 8000e58:	fb07 f404 	mul.w	r4, r7, r4
		op0 = (int16_t)get_sample((op[0][voice_index].phase >> 8) + op3 + op1)*op_amp[0] >> 8;
 8000e5c:	0a09      	lsrs	r1, r1, #8
 8000e5e:	eb01 2222 	add.w	r2, r1, r2, asr #8
 8000e62:	eb02 2224 	add.w	r2, r2, r4, asr #8
 8000e66:	e7b9      	b.n	8000ddc <synth_sample+0x264>
 8000e68:	0a3f      	lsrs	r7, r7, #8
		op3 = (int16_t)get_mod_sample(op[3][voice_index].phase >> 8)*op_amp[3] >> 8;
 8000e6a:	f91e 7007 	ldrsb.w	r7, [lr, r7]
		op2 = (int16_t)get_mod_sample((op[2][voice_index].phase >> 8) + op3)*op_amp[2] >> 8;
 8000e6e:	0a12      	lsrs	r2, r2, #8
		op3 = (int16_t)get_mod_sample(op[3][voice_index].phase >> 8)*op_amp[3] >> 8;
 8000e70:	fb0a f707 	mul.w	r7, sl, r7
		op2 = (int16_t)get_mod_sample((op[2][voice_index].phase >> 8) + op3)*op_amp[2] >> 8;
 8000e74:	eb02 2227 	add.w	r2, r2, r7, asr #8
 8000e78:	b2d2      	uxtb	r2, r2
 8000e7a:	f91e 2002 	ldrsb.w	r2, [lr, r2]
		op1 = (int16_t)get_mod_sample((op[1][voice_index].phase >> 8) + op2)*op_amp[1] >> 8;
 8000e7e:	0a24      	lsrs	r4, r4, #8
		op2 = (int16_t)get_mod_sample((op[2][voice_index].phase >> 8) + op3)*op_amp[2] >> 8;
 8000e80:	fb09 f202 	mul.w	r2, r9, r2
		op1 = (int16_t)get_mod_sample((op[1][voice_index].phase >> 8) + op2)*op_amp[1] >> 8;
 8000e84:	eb04 2222 	add.w	r2, r4, r2, asr #8
 8000e88:	b2d2      	uxtb	r2, r2
 8000e8a:	f91e 2002 	ldrsb.w	r2, [lr, r2]
		op1 = (int16_t)get_mod_sample((op[1][voice_index].phase >> 8) + op3 + op2)*op_amp[1] >> 8;
 8000e8e:	9c00      	ldr	r4, [sp, #0]
		op0 = (int16_t)get_sample((op[0][voice_index].phase >> 8) + op1)*op_amp[0] >> 8;
 8000e90:	0a09      	lsrs	r1, r1, #8
		op1 = (int16_t)get_mod_sample((op[1][voice_index].phase >> 8) + op3 + op2)*op_amp[1] >> 8;
 8000e92:	fb04 f202 	mul.w	r2, r4, r2
		op0 = (int16_t)get_sample((op[0][voice_index].phase >> 8) + op1)*op_amp[0] >> 8;
 8000e96:	eb01 2222 	add.w	r2, r1, r2, asr #8
 8000e9a:	e79f      	b.n	8000ddc <synth_sample+0x264>
 8000e9c:	0a12      	lsrs	r2, r2, #8
		op2 = (int16_t)get_mod_sample(op[2][voice_index].phase >> 8)*op_amp[2] >> 8;
 8000e9e:	f91e c002 	ldrsb.w	ip, [lr, r2]
 8000ea2:	0a3f      	lsrs	r7, r7, #8
		op3 = (int16_t)get_mod_sample(op[3][voice_index].phase >> 8)*op_amp[3] >> 8;
 8000ea4:	f91e 2007 	ldrsb.w	r2, [lr, r7]
		op2 = (int16_t)get_mod_sample(op[2][voice_index].phase >> 8)*op_amp[2] >> 8;
 8000ea8:	fb09 fc0c 	mul.w	ip, r9, ip
		op3 = (int16_t)get_mod_sample(op[3][voice_index].phase >> 8)*op_amp[3] >> 8;
 8000eac:	fb0a f202 	mul.w	r2, sl, r2
		op2 = (int16_t)get_mod_sample(op[2][voice_index].phase >> 8)*op_amp[2] >> 8;
 8000eb0:	ea4f 2c2c 	mov.w	ip, ip, asr #8
		op1 = (int16_t)get_mod_sample((op[1][voice_index].phase >> 8) + op3 + op2)*op_amp[1] >> 8;
 8000eb4:	eb0c 2222 	add.w	r2, ip, r2, asr #8
 8000eb8:	eb02 2414 	add.w	r4, r2, r4, lsr #8
 8000ebc:	b2e4      	uxtb	r4, r4
 8000ebe:	f91e 2004 	ldrsb.w	r2, [lr, r4]
 8000ec2:	e7e4      	b.n	8000e8e <synth_sample+0x316>
		op[op_index][voice_index].phase = update_phase(op[op_index][voice_index].delta, op[op_index][voice_index].phase);
 8000ec4:	2200      	movs	r2, #0
 8000ec6:	e6bf      	b.n	8000c48 <synth_sample+0xd0>
 8000ec8:	20000238 	.word	0x20000238
 8000ecc:	20000234 	.word	0x20000234
 8000ed0:	20000034 	.word	0x20000034
 8000ed4:	55555556 	.word	0x55555556
 8000ed8:	080023c8 	.word	0x080023c8
 8000edc:	080022c8 	.word	0x080022c8

08000ee0 <SystemInit>:

  /* Configure the Vector Table location -------------------------------------*/
#if defined(USER_VECT_TAB_ADDRESS)
  SCB->VTOR = VECT_TAB_BASE_ADDRESS | VECT_TAB_OFFSET; /* Vector Table Relocation in Internal SRAM. */
#endif /* USER_VECT_TAB_ADDRESS */
}
 8000ee0:	4770      	bx	lr
 8000ee2:	bf00      	nop

08000ee4 <Reset_Handler>:
  .weak Reset_Handler
  .type Reset_Handler, %function
Reset_Handler:

/* Copy the data segment initializers from flash to SRAM */
  ldr r0, =_sdata
 8000ee4:	480c      	ldr	r0, [pc, #48]	; (8000f18 <LoopFillZerobss+0x12>)
  ldr r1, =_edata
 8000ee6:	490d      	ldr	r1, [pc, #52]	; (8000f1c <LoopFillZerobss+0x16>)
  ldr r2, =_sidata
 8000ee8:	4a0d      	ldr	r2, [pc, #52]	; (8000f20 <LoopFillZerobss+0x1a>)
  movs r3, #0
 8000eea:	2300      	movs	r3, #0
  b LoopCopyDataInit
 8000eec:	e002      	b.n	8000ef4 <LoopCopyDataInit>

08000eee <CopyDataInit>:

CopyDataInit:
  ldr r4, [r2, r3]
 8000eee:	58d4      	ldr	r4, [r2, r3]
  str r4, [r0, r3]
 8000ef0:	50c4      	str	r4, [r0, r3]
  adds r3, r3, #4
 8000ef2:	3304      	adds	r3, #4

08000ef4 <LoopCopyDataInit>:

LoopCopyDataInit:
  adds r4, r0, r3
 8000ef4:	18c4      	adds	r4, r0, r3
  cmp r4, r1
 8000ef6:	428c      	cmp	r4, r1
  bcc CopyDataInit
 8000ef8:	d3f9      	bcc.n	8000eee <CopyDataInit>
  
/* Zero fill the bss segment. */
  ldr r2, =_sbss
 8000efa:	4a0a      	ldr	r2, [pc, #40]	; (8000f24 <LoopFillZerobss+0x1e>)
  ldr r4, =_ebss
 8000efc:	4c0a      	ldr	r4, [pc, #40]	; (8000f28 <LoopFillZerobss+0x22>)
  movs r3, #0
 8000efe:	2300      	movs	r3, #0
  b LoopFillZerobss
 8000f00:	e001      	b.n	8000f06 <LoopFillZerobss>

08000f02 <FillZerobss>:

FillZerobss:
  str  r3, [r2]
 8000f02:	6013      	str	r3, [r2, #0]
  adds r2, r2, #4
 8000f04:	3204      	adds	r2, #4

08000f06 <LoopFillZerobss>:

LoopFillZerobss:
  cmp r2, r4
 8000f06:	42a2      	cmp	r2, r4
  bcc FillZerobss
 8000f08:	d3fb      	bcc.n	8000f02 <FillZerobss>

/* Call the clock system intitialization function.*/
    bl  SystemInit
 8000f0a:	f7ff ffe9 	bl	8000ee0 <SystemInit>
/* Call static constructors */
    bl __libc_init_array
 8000f0e:	f001 f927 	bl	8002160 <__libc_init_array>
/* Call the application's entry point.*/
  bl main
 8000f12:	f7ff f983 	bl	800021c <main>
  bx lr
 8000f16:	4770      	bx	lr
  ldr r0, =_sdata
 8000f18:	20000000 	.word	0x20000000
  ldr r1, =_edata
 8000f1c:	20000018 	.word	0x20000018
  ldr r2, =_sidata
 8000f20:	080024fc 	.word	0x080024fc
  ldr r2, =_sbss
 8000f24:	20000018 	.word	0x20000018
  ldr r4, =_ebss
 8000f28:	20000334 	.word	0x20000334

08000f2c <ADC1_2_IRQHandler>:
 * @retval : None
*/
    .section .text.Default_Handler,"ax",%progbits
Default_Handler:
Infinite_Loop:
  b Infinite_Loop
 8000f2c:	e7fe      	b.n	8000f2c <ADC1_2_IRQHandler>
	...

08000f30 <HAL_InitTick>:
  *       implementation  in user file.
  * @param TickPriority Tick interrupt priority.
  * @retval HAL status
  */
__weak HAL_StatusTypeDef HAL_InitTick(uint32_t TickPriority)
{
 8000f30:	b538      	push	{r3, r4, r5, lr}
  /* Configure the SysTick to have interrupt in 1ms time basis*/
  if (HAL_SYSTICK_Config(SystemCoreClock / (1000U / uwTickFreq)) > 0U)
 8000f32:	f44f 737a 	mov.w	r3, #1000	; 0x3e8
 8000f36:	4a0d      	ldr	r2, [pc, #52]	; (8000f6c <HAL_InitTick+0x3c>)
{
 8000f38:	4605      	mov	r5, r0
  if (HAL_SYSTICK_Config(SystemCoreClock / (1000U / uwTickFreq)) > 0U)
 8000f3a:	7811      	ldrb	r1, [r2, #0]
 8000f3c:	4a0c      	ldr	r2, [pc, #48]	; (8000f70 <HAL_InitTick+0x40>)
 8000f3e:	fbb3 f3f1 	udiv	r3, r3, r1
 8000f42:	6812      	ldr	r2, [r2, #0]
 8000f44:	fbb2 f0f3 	udiv	r0, r2, r3
 8000f48:	f000 f892 	bl	8001070 <HAL_SYSTICK_Config>
 8000f4c:	b908      	cbnz	r0, 8000f52 <HAL_InitTick+0x22>
  {
    return HAL_ERROR;
  }

  /* Configure the SysTick IRQ priority */
  if (TickPriority < (1UL << __NVIC_PRIO_BITS))
 8000f4e:	2d0f      	cmp	r5, #15
 8000f50:	d901      	bls.n	8000f56 <HAL_InitTick+0x26>
    return HAL_ERROR;
 8000f52:	2001      	movs	r0, #1
    return HAL_ERROR;
  }

  /* Return function status */
  return HAL_OK;
}
 8000f54:	bd38      	pop	{r3, r4, r5, pc}
 8000f56:	4604      	mov	r4, r0
    HAL_NVIC_SetPriority(SysTick_IRQn, TickPriority, 0U);
 8000f58:	4602      	mov	r2, r0
 8000f5a:	4629      	mov	r1, r5
 8000f5c:	f04f 30ff 	mov.w	r0, #4294967295
 8000f60:	f000 f840 	bl	8000fe4 <HAL_NVIC_SetPriority>
    uwTickPrio = TickPriority;
 8000f64:	4b03      	ldr	r3, [pc, #12]	; (8000f74 <HAL_InitTick+0x44>)
 8000f66:	4620      	mov	r0, r4
 8000f68:	601d      	str	r5, [r3, #0]
}
 8000f6a:	bd38      	pop	{r3, r4, r5, pc}
 8000f6c:	20000010 	.word	0x20000010
 8000f70:	2000000c 	.word	0x2000000c
 8000f74:	20000014 	.word	0x20000014

08000f78 <HAL_Init>:
  __HAL_FLASH_PREFETCH_BUFFER_ENABLE();
 8000f78:	4a07      	ldr	r2, [pc, #28]	; (8000f98 <HAL_Init+0x20>)
{
 8000f7a:	b508      	push	{r3, lr}
  __HAL_FLASH_PREFETCH_BUFFER_ENABLE();
 8000f7c:	6813      	ldr	r3, [r2, #0]
  HAL_NVIC_SetPriorityGrouping(NVIC_PRIORITYGROUP_4);
 8000f7e:	2003      	movs	r0, #3
  __HAL_FLASH_PREFETCH_BUFFER_ENABLE();
 8000f80:	f043 0310 	orr.w	r3, r3, #16
 8000f84:	6013      	str	r3, [r2, #0]
  HAL_NVIC_SetPriorityGrouping(NVIC_PRIORITYGROUP_4);
 8000f86:	f000 f81b 	bl	8000fc0 <HAL_NVIC_SetPriorityGrouping>
  HAL_InitTick(TICK_INT_PRIORITY);
 8000f8a:	2000      	movs	r0, #0
 8000f8c:	f7ff ffd0 	bl	8000f30 <HAL_InitTick>
  HAL_MspInit();
 8000f90:	f7ff fa6e 	bl	8000470 <HAL_MspInit>
}
 8000f94:	2000      	movs	r0, #0
 8000f96:	bd08      	pop	{r3, pc}
 8000f98:	40022000 	.word	0x40022000

08000f9c <HAL_IncTick>:
  *      implementations in user file.
  * @retval None
  */
__weak void HAL_IncTick(void)
{
  uwTick += uwTickFreq;
 8000f9c:	4a03      	ldr	r2, [pc, #12]	; (8000fac <HAL_IncTick+0x10>)
 8000f9e:	4b04      	ldr	r3, [pc, #16]	; (8000fb0 <HAL_IncTick+0x14>)
 8000fa0:	6811      	ldr	r1, [r2, #0]
 8000fa2:	781b      	ldrb	r3, [r3, #0]
 8000fa4:	440b      	add	r3, r1
 8000fa6:	6013      	str	r3, [r2, #0]
}
 8000fa8:	4770      	bx	lr
 8000faa:	bf00      	nop
 8000fac:	20000330 	.word	0x20000330
 8000fb0:	20000010 	.word	0x20000010

08000fb4 <HAL_GetTick>:
  *       implementations in user file.
  * @retval tick value
  */
__weak uint32_t HAL_GetTick(void)
{
  return uwTick;
 8000fb4:	4b01      	ldr	r3, [pc, #4]	; (8000fbc <HAL_GetTick+0x8>)
 8000fb6:	6818      	ldr	r0, [r3, #0]
}
 8000fb8:	4770      	bx	lr
 8000fba:	bf00      	nop
 8000fbc:	20000330 	.word	0x20000330

08000fc0 <HAL_NVIC_SetPriorityGrouping>:
{
  uint32_t reg_value;
  uint32_t PriorityGroupTmp = (PriorityGroup & (uint32_t)0x07UL);             /* only values 0..7 are used          */

  reg_value  =  SCB->AIRCR;                                                   /* read old register configuration    */
  reg_value &= ~((uint32_t)(SCB_AIRCR_VECTKEY_Msk | SCB_AIRCR_PRIGROUP_Msk)); /* clear bits to change               */
 8000fc0:	f64f 01ff 	movw	r1, #63743	; 0xf8ff
  reg_value  =  SCB->AIRCR;                                                   /* read old register configuration    */
 8000fc4:	4a06      	ldr	r2, [pc, #24]	; (8000fe0 <HAL_NVIC_SetPriorityGrouping+0x20>)
  reg_value  =  (reg_value                                   |
                ((uint32_t)0x5FAUL << SCB_AIRCR_VECTKEY_Pos) |
                (PriorityGroupTmp << SCB_AIRCR_PRIGROUP_Pos) );               /* Insert write key and priority group */
 8000fc6:	0203      	lsls	r3, r0, #8
  reg_value  =  SCB->AIRCR;                                                   /* read old register configuration    */
 8000fc8:	68d0      	ldr	r0, [r2, #12]
                (PriorityGroupTmp << SCB_AIRCR_PRIGROUP_Pos) );               /* Insert write key and priority group */
 8000fca:	f403 63e0 	and.w	r3, r3, #1792	; 0x700
  reg_value &= ~((uint32_t)(SCB_AIRCR_VECTKEY_Msk | SCB_AIRCR_PRIGROUP_Msk)); /* clear bits to change               */
 8000fce:	4008      	ands	r0, r1
                ((uint32_t)0x5FAUL << SCB_AIRCR_VECTKEY_Pos) |
 8000fd0:	4303      	orrs	r3, r0
  reg_value  =  (reg_value                                   |
 8000fd2:	f043 63bf 	orr.w	r3, r3, #100139008	; 0x5f80000
 8000fd6:	f443 3300 	orr.w	r3, r3, #131072	; 0x20000
  SCB->AIRCR =  reg_value;
 8000fda:	60d3      	str	r3, [r2, #12]
  /* Check the parameters */
  assert_param(IS_NVIC_PRIORITY_GROUP(PriorityGroup));
  
  /* Set the PRIGROUP[10:8] bits according to the PriorityGroup parameter value */
  NVIC_SetPriorityGrouping(PriorityGroup);
}
 8000fdc:	4770      	bx	lr
 8000fde:	bf00      	nop
 8000fe0:	e000ed00 	.word	0xe000ed00

08000fe4 <HAL_NVIC_SetPriority>:
  \details Reads the priority grouping field from the NVIC Interrupt Controller.
  \return                Priority grouping field (SCB->AIRCR [10:8] PRIGROUP field).
 */
__STATIC_INLINE uint32_t __NVIC_GetPriorityGrouping(void)
{
  return ((uint32_t)((SCB->AIRCR & SCB_AIRCR_PRIGROUP_Msk) >> SCB_AIRCR_PRIGROUP_Pos));
 8000fe4:	4b19      	ldr	r3, [pc, #100]	; (800104c <HAL_NVIC_SetPriority+0x68>)
  *         This parameter can be a value between 0 and 15
  *         A lower priority value indicates a higher priority.          
  * @retval None
  */
void HAL_NVIC_SetPriority(IRQn_Type IRQn, uint32_t PreemptPriority, uint32_t SubPriority)
{ 
 8000fe6:	b430      	push	{r4, r5}
 8000fe8:	68db      	ldr	r3, [r3, #12]
 8000fea:	f3c3 2302 	ubfx	r3, r3, #8, #3
{
  uint32_t PriorityGroupTmp = (PriorityGroup & (uint32_t)0x07UL);   /* only values 0..7 are used          */
  uint32_t PreemptPriorityBits;
  uint32_t SubPriorityBits;

  PreemptPriorityBits = ((7UL - PriorityGroupTmp) > (uint32_t)(__NVIC_PRIO_BITS)) ? (uint32_t)(__NVIC_PRIO_BITS) : (uint32_t)(7UL - PriorityGroupTmp);
 8000fee:	f1c3 0507 	rsb	r5, r3, #7
 8000ff2:	2d04      	cmp	r5, #4
  SubPriorityBits     = ((PriorityGroupTmp + (uint32_t)(__NVIC_PRIO_BITS)) < (uint32_t)7UL) ? (uint32_t)0UL : (uint32_t)((PriorityGroupTmp - 7UL) + (uint32_t)(__NVIC_PRIO_BITS));
 8000ff4:	f103 0404 	add.w	r4, r3, #4
  PreemptPriorityBits = ((7UL - PriorityGroupTmp) > (uint32_t)(__NVIC_PRIO_BITS)) ? (uint32_t)(__NVIC_PRIO_BITS) : (uint32_t)(7UL - PriorityGroupTmp);
 8000ff8:	bf28      	it	cs
 8000ffa:	2504      	movcs	r5, #4
  SubPriorityBits     = ((PriorityGroupTmp + (uint32_t)(__NVIC_PRIO_BITS)) < (uint32_t)7UL) ? (uint32_t)0UL : (uint32_t)((PriorityGroupTmp - 7UL) + (uint32_t)(__NVIC_PRIO_BITS));
 8000ffc:	2c06      	cmp	r4, #6
 8000ffe:	d919      	bls.n	8001034 <HAL_NVIC_SetPriority+0x50>
 8001000:	f04f 34ff 	mov.w	r4, #4294967295
 8001004:	3b03      	subs	r3, #3
 8001006:	409c      	lsls	r4, r3
 8001008:	ea22 0204 	bic.w	r2, r2, r4

  return (
           ((PreemptPriority & (uint32_t)((1UL << (PreemptPriorityBits)) - 1UL)) << SubPriorityBits) |
 800100c:	f04f 34ff 	mov.w	r4, #4294967295
 8001010:	40ac      	lsls	r4, r5
 8001012:	ea21 0104 	bic.w	r1, r1, r4
 8001016:	4099      	lsls	r1, r3
  if ((int32_t)(IRQn) >= 0)
 8001018:	2800      	cmp	r0, #0
           ((PreemptPriority & (uint32_t)((1UL << (PreemptPriorityBits)) - 1UL)) << SubPriorityBits) |
 800101a:	ea41 0102 	orr.w	r1, r1, r2
  if ((int32_t)(IRQn) >= 0)
 800101e:	db0c      	blt.n	800103a <HAL_NVIC_SetPriority+0x56>
    NVIC->IP[((uint32_t)IRQn)]               = (uint8_t)((priority << (8U - __NVIC_PRIO_BITS)) & (uint32_t)0xFFUL);
 8001020:	0109      	lsls	r1, r1, #4
 8001022:	f100 4060 	add.w	r0, r0, #3758096384	; 0xe0000000
 8001026:	b2c9      	uxtb	r1, r1
 8001028:	f500 4061 	add.w	r0, r0, #57600	; 0xe100
 800102c:	f880 1300 	strb.w	r1, [r0, #768]	; 0x300
  assert_param(IS_NVIC_PREEMPTION_PRIORITY(PreemptPriority));
  
  prioritygroup = NVIC_GetPriorityGrouping();
  
  NVIC_SetPriority(IRQn, NVIC_EncodePriority(prioritygroup, PreemptPriority, SubPriority));
}
 8001030:	bc30      	pop	{r4, r5}
 8001032:	4770      	bx	lr
 8001034:	2200      	movs	r2, #0
  SubPriorityBits     = ((PriorityGroupTmp + (uint32_t)(__NVIC_PRIO_BITS)) < (uint32_t)7UL) ? (uint32_t)0UL : (uint32_t)((PriorityGroupTmp - 7UL) + (uint32_t)(__NVIC_PRIO_BITS));
 8001036:	4613      	mov	r3, r2
 8001038:	e7e8      	b.n	800100c <HAL_NVIC_SetPriority+0x28>
    SCB->SHP[(((uint32_t)IRQn) & 0xFUL)-4UL] = (uint8_t)((priority << (8U - __NVIC_PRIO_BITS)) & (uint32_t)0xFFUL);
 800103a:	4b05      	ldr	r3, [pc, #20]	; (8001050 <HAL_NVIC_SetPriority+0x6c>)
 800103c:	f000 000f 	and.w	r0, r0, #15
 8001040:	0109      	lsls	r1, r1, #4
 8001042:	b2c9      	uxtb	r1, r1
 8001044:	4403      	add	r3, r0
 8001046:	7619      	strb	r1, [r3, #24]
 8001048:	bc30      	pop	{r4, r5}
 800104a:	4770      	bx	lr
 800104c:	e000ed00 	.word	0xe000ed00
 8001050:	e000ecfc 	.word	0xe000ecfc

08001054 <HAL_NVIC_EnableIRQ>:
  if ((int32_t)(IRQn) >= 0)
 8001054:	2800      	cmp	r0, #0
 8001056:	db07      	blt.n	8001068 <HAL_NVIC_EnableIRQ+0x14>
    NVIC->ISER[(((uint32_t)IRQn) >> 5UL)] = (uint32_t)(1UL << (((uint32_t)IRQn) & 0x1FUL));
 8001058:	2301      	movs	r3, #1
 800105a:	f000 011f 	and.w	r1, r0, #31
 800105e:	4a03      	ldr	r2, [pc, #12]	; (800106c <HAL_NVIC_EnableIRQ+0x18>)
 8001060:	408b      	lsls	r3, r1
 8001062:	0940      	lsrs	r0, r0, #5
 8001064:	f842 3020 	str.w	r3, [r2, r0, lsl #2]
  /* Check the parameters */
  assert_param(IS_NVIC_DEVICE_IRQ(IRQn));

  /* Enable interrupt */
  NVIC_EnableIRQ(IRQn);
}
 8001068:	4770      	bx	lr
 800106a:	bf00      	nop
 800106c:	e000e100 	.word	0xe000e100

08001070 <HAL_SYSTICK_Config>:
           function <b>SysTick_Config</b> is not included. In this case, the file <b><i>device</i>.h</b>
           must contain a vendor-specific implementation of this function.
 */
__STATIC_INLINE uint32_t SysTick_Config(uint32_t ticks)
{
  if ((ticks - 1UL) > SysTick_LOAD_RELOAD_Msk)
 8001070:	3801      	subs	r0, #1
 8001072:	f1b0 7f80 	cmp.w	r0, #16777216	; 0x1000000
 8001076:	d20d      	bcs.n	8001094 <HAL_SYSTICK_Config+0x24>
  * @param  TicksNumb: Specifies the ticks Number of ticks between two interrupts.
  * @retval status:  - 0  Function succeeded.
  *                  - 1  Function failed.
  */
uint32_t HAL_SYSTICK_Config(uint32_t TicksNumb)
{
 8001078:	b430      	push	{r4, r5}
    SCB->SHP[(((uint32_t)IRQn) & 0xFUL)-4UL] = (uint8_t)((priority << (8U - __NVIC_PRIO_BITS)) & (uint32_t)0xFFUL);
 800107a:	25f0      	movs	r5, #240	; 0xf0
    return (1UL);                                                   /* Reload value impossible */
  }

  SysTick->LOAD  = (uint32_t)(ticks - 1UL);                         /* set reload register */
  NVIC_SetPriority (SysTick_IRQn, (1UL << __NVIC_PRIO_BITS) - 1UL); /* set Priority for Systick Interrupt */
  SysTick->VAL   = 0UL;                                             /* Load the SysTick Counter Value */
 800107c:	2200      	movs	r2, #0
  SysTick->CTRL  = SysTick_CTRL_CLKSOURCE_Msk |
 800107e:	2107      	movs	r1, #7
  SysTick->LOAD  = (uint32_t)(ticks - 1UL);                         /* set reload register */
 8001080:	4b05      	ldr	r3, [pc, #20]	; (8001098 <HAL_SYSTICK_Config+0x28>)
    SCB->SHP[(((uint32_t)IRQn) & 0xFUL)-4UL] = (uint8_t)((priority << (8U - __NVIC_PRIO_BITS)) & (uint32_t)0xFFUL);
 8001082:	4c06      	ldr	r4, [pc, #24]	; (800109c <HAL_SYSTICK_Config+0x2c>)
  SysTick->LOAD  = (uint32_t)(ticks - 1UL);                         /* set reload register */
 8001084:	6058      	str	r0, [r3, #4]
    SCB->SHP[(((uint32_t)IRQn) & 0xFUL)-4UL] = (uint8_t)((priority << (8U - __NVIC_PRIO_BITS)) & (uint32_t)0xFFUL);
 8001086:	f884 5023 	strb.w	r5, [r4, #35]	; 0x23
                   SysTick_CTRL_TICKINT_Msk   |
                   SysTick_CTRL_ENABLE_Msk;                         /* Enable SysTick IRQ and SysTick Timer */
  return (0UL);                                                     /* Function successful */
 800108a:	4610      	mov	r0, r2
   return SysTick_Config(TicksNumb);
}
 800108c:	bc30      	pop	{r4, r5}
  SysTick->VAL   = 0UL;                                             /* Load the SysTick Counter Value */
 800108e:	609a      	str	r2, [r3, #8]
  SysTick->CTRL  = SysTick_CTRL_CLKSOURCE_Msk |
 8001090:	6019      	str	r1, [r3, #0]
 8001092:	4770      	bx	lr
    return (1UL);                                                   /* Reload value impossible */
 8001094:	2001      	movs	r0, #1
 8001096:	4770      	bx	lr
 8001098:	e000e010 	.word	0xe000e010
 800109c:	e000ed00 	.word	0xe000ed00

080010a0 <HAL_DMA_Abort>:
  */
HAL_StatusTypeDef HAL_DMA_Abort(DMA_HandleTypeDef *hdma)
{
  HAL_StatusTypeDef status = HAL_OK;
  
  if(hdma->State != HAL_DMA_STATE_BUSY)
 80010a0:	f890 2021 	ldrb.w	r2, [r0, #33]	; 0x21
{
 80010a4:	4603      	mov	r3, r0
  if(hdma->State != HAL_DMA_STATE_BUSY)
 80010a6:	2a02      	cmp	r2, #2
 80010a8:	d006      	beq.n	80010b8 <HAL_DMA_Abort+0x18>
  {
    /* no transfer ongoing */
    hdma->ErrorCode = HAL_DMA_ERROR_NO_XFER;
 80010aa:	2104      	movs	r1, #4
    
    /* Process Unlocked */
    __HAL_UNLOCK(hdma);
 80010ac:	2200      	movs	r2, #0
    hdma->ErrorCode = HAL_DMA_ERROR_NO_XFER;
 80010ae:	6381      	str	r1, [r0, #56]	; 0x38
    __HAL_UNLOCK(hdma);
 80010b0:	f880 2020 	strb.w	r2, [r0, #32]
    
    return HAL_ERROR;
 80010b4:	2001      	movs	r0, #1

  /* Process Unlocked */
  __HAL_UNLOCK(hdma);      
  
  return status; 
}
 80010b6:	4770      	bx	lr
    hdma->DmaBaseAddress->IFCR = (DMA_ISR_GIF1 << hdma->ChannelIndex);
 80010b8:	2101      	movs	r1, #1
{
 80010ba:	b470      	push	{r4, r5, r6}
  __HAL_UNLOCK(hdma);      
 80010bc:	f44f 7580 	mov.w	r5, #256	; 0x100
    __HAL_DMA_DISABLE_IT(hdma, (DMA_IT_TC | DMA_IT_HT | DMA_IT_TE));
 80010c0:	681a      	ldr	r2, [r3, #0]
    hdma->DmaBaseAddress->IFCR = (DMA_ISR_GIF1 << hdma->ChannelIndex);
 80010c2:	6c1e      	ldr	r6, [r3, #64]	; 0x40
    __HAL_DMA_DISABLE_IT(hdma, (DMA_IT_TC | DMA_IT_HT | DMA_IT_TE));
 80010c4:	6814      	ldr	r4, [r2, #0]
    hdma->DmaBaseAddress->IFCR = (DMA_ISR_GIF1 << hdma->ChannelIndex);
 80010c6:	40b1      	lsls	r1, r6
    __HAL_DMA_DISABLE_IT(hdma, (DMA_IT_TC | DMA_IT_HT | DMA_IT_TE));
 80010c8:	f024 040e 	bic.w	r4, r4, #14
 80010cc:	6014      	str	r4, [r2, #0]
    __HAL_DMA_DISABLE(hdma);
 80010ce:	6814      	ldr	r4, [r2, #0]
  return status; 
 80010d0:	2000      	movs	r0, #0
    __HAL_DMA_DISABLE(hdma);
 80010d2:	f024 0401 	bic.w	r4, r4, #1
 80010d6:	6014      	str	r4, [r2, #0]
    hdma->DmaBaseAddress->IFCR = (DMA_ISR_GIF1 << hdma->ChannelIndex);
 80010d8:	6bda      	ldr	r2, [r3, #60]	; 0x3c
 80010da:	6051      	str	r1, [r2, #4]
  __HAL_UNLOCK(hdma);      
 80010dc:	841d      	strh	r5, [r3, #32]
}
 80010de:	bc70      	pop	{r4, r5, r6}
 80010e0:	4770      	bx	lr
 80010e2:	bf00      	nop

080010e4 <HAL_DMA_Abort_IT>:
  */
HAL_StatusTypeDef HAL_DMA_Abort_IT(DMA_HandleTypeDef *hdma)
{  
  HAL_StatusTypeDef status = HAL_OK;
  
  if(HAL_DMA_STATE_BUSY != hdma->State)
 80010e4:	f890 2021 	ldrb.w	r2, [r0, #33]	; 0x21
{  
 80010e8:	4603      	mov	r3, r0
  if(HAL_DMA_STATE_BUSY != hdma->State)
 80010ea:	2a02      	cmp	r2, #2
 80010ec:	d003      	beq.n	80010f6 <HAL_DMA_Abort_IT+0x12>
  {
    /* no transfer ongoing */
    hdma->ErrorCode = HAL_DMA_ERROR_NO_XFER;
 80010ee:	2204      	movs	r2, #4
        
    status = HAL_ERROR;
 80010f0:	2001      	movs	r0, #1
    hdma->ErrorCode = HAL_DMA_ERROR_NO_XFER;
 80010f2:	639a      	str	r2, [r3, #56]	; 0x38
    {
      hdma->XferAbortCallback(hdma);
    } 
  }
  return status;
}
 80010f4:	4770      	bx	lr
    __HAL_DMA_DISABLE_IT(hdma, (DMA_IT_TC | DMA_IT_HT | DMA_IT_TE));
 80010f6:	6802      	ldr	r2, [r0, #0]
{  
 80010f8:	b510      	push	{r4, lr}
    __HAL_DMA_DISABLE_IT(hdma, (DMA_IT_TC | DMA_IT_HT | DMA_IT_TE));
 80010fa:	6811      	ldr	r1, [r2, #0]
    __HAL_DMA_CLEAR_FLAG(hdma, __HAL_DMA_GET_GI_FLAG_INDEX(hdma));
 80010fc:	481b      	ldr	r0, [pc, #108]	; (800116c <HAL_DMA_Abort_IT+0x88>)
    __HAL_DMA_DISABLE_IT(hdma, (DMA_IT_TC | DMA_IT_HT | DMA_IT_TE));
 80010fe:	f021 010e 	bic.w	r1, r1, #14
 8001102:	6011      	str	r1, [r2, #0]
    __HAL_DMA_DISABLE(hdma);
 8001104:	6811      	ldr	r1, [r2, #0]
    __HAL_DMA_CLEAR_FLAG(hdma, __HAL_DMA_GET_GI_FLAG_INDEX(hdma));
 8001106:	4282      	cmp	r2, r0
    __HAL_DMA_DISABLE(hdma);
 8001108:	f021 0101 	bic.w	r1, r1, #1
 800110c:	6011      	str	r1, [r2, #0]
    __HAL_DMA_CLEAR_FLAG(hdma, __HAL_DMA_GET_GI_FLAG_INDEX(hdma));
 800110e:	d021      	beq.n	8001154 <HAL_DMA_Abort_IT+0x70>
 8001110:	4917      	ldr	r1, [pc, #92]	; (8001170 <HAL_DMA_Abort_IT+0x8c>)
 8001112:	428a      	cmp	r2, r1
 8001114:	d01a      	beq.n	800114c <HAL_DMA_Abort_IT+0x68>
 8001116:	3114      	adds	r1, #20
 8001118:	428a      	cmp	r2, r1
 800111a:	d01d      	beq.n	8001158 <HAL_DMA_Abort_IT+0x74>
 800111c:	3114      	adds	r1, #20
 800111e:	428a      	cmp	r2, r1
 8001120:	d01d      	beq.n	800115e <HAL_DMA_Abort_IT+0x7a>
 8001122:	3114      	adds	r1, #20
 8001124:	428a      	cmp	r2, r1
 8001126:	d01d      	beq.n	8001164 <HAL_DMA_Abort_IT+0x80>
 8001128:	3114      	adds	r1, #20
 800112a:	428a      	cmp	r2, r1
 800112c:	bf0c      	ite	eq
 800112e:	f44f 1280 	moveq.w	r2, #1048576	; 0x100000
 8001132:	f04f 7280 	movne.w	r2, #16777216	; 0x1000000
    __HAL_UNLOCK(hdma);
 8001136:	f44f 7080 	mov.w	r0, #256	; 0x100
    __HAL_DMA_CLEAR_FLAG(hdma, __HAL_DMA_GET_GI_FLAG_INDEX(hdma));
 800113a:	4c0e      	ldr	r4, [pc, #56]	; (8001174 <HAL_DMA_Abort_IT+0x90>)
    if(hdma->XferAbortCallback != NULL)
 800113c:	6b59      	ldr	r1, [r3, #52]	; 0x34
    __HAL_DMA_CLEAR_FLAG(hdma, __HAL_DMA_GET_GI_FLAG_INDEX(hdma));
 800113e:	6062      	str	r2, [r4, #4]
    __HAL_UNLOCK(hdma);
 8001140:	8418      	strh	r0, [r3, #32]
    if(hdma->XferAbortCallback != NULL)
 8001142:	b129      	cbz	r1, 8001150 <HAL_DMA_Abort_IT+0x6c>
      hdma->XferAbortCallback(hdma);
 8001144:	4618      	mov	r0, r3
 8001146:	4788      	blx	r1
  HAL_StatusTypeDef status = HAL_OK;
 8001148:	2000      	movs	r0, #0
}
 800114a:	bd10      	pop	{r4, pc}
    __HAL_DMA_CLEAR_FLAG(hdma, __HAL_DMA_GET_GI_FLAG_INDEX(hdma));
 800114c:	2210      	movs	r2, #16
 800114e:	e7f2      	b.n	8001136 <HAL_DMA_Abort_IT+0x52>
  HAL_StatusTypeDef status = HAL_OK;
 8001150:	4608      	mov	r0, r1
}
 8001152:	bd10      	pop	{r4, pc}
    __HAL_DMA_CLEAR_FLAG(hdma, __HAL_DMA_GET_GI_FLAG_INDEX(hdma));
 8001154:	2201      	movs	r2, #1
 8001156:	e7ee      	b.n	8001136 <HAL_DMA_Abort_IT+0x52>
 8001158:	f44f 7280 	mov.w	r2, #256	; 0x100
 800115c:	e7eb      	b.n	8001136 <HAL_DMA_Abort_IT+0x52>
 800115e:	f44f 5280 	mov.w	r2, #4096	; 0x1000
 8001162:	e7e8      	b.n	8001136 <HAL_DMA_Abort_IT+0x52>
 8001164:	f44f 3280 	mov.w	r2, #65536	; 0x10000
 8001168:	e7e5      	b.n	8001136 <HAL_DMA_Abort_IT+0x52>
 800116a:	bf00      	nop
 800116c:	40020008 	.word	0x40020008
 8001170:	4002001c 	.word	0x4002001c
 8001174:	40020000 	.word	0x40020000

08001178 <HAL_GPIO_Init>:
  * @param  GPIO_Init: pointer to a GPIO_InitTypeDef structure that contains
  *         the configuration information for the specified GPIO peripheral.
  * @retval None
  */
void HAL_GPIO_Init(GPIO_TypeDef  *GPIOx, GPIO_InitTypeDef *GPIO_Init)
{
 8001178:	e92d 4ff0 	stmdb	sp!, {r4, r5, r6, r7, r8, r9, sl, fp, lr}
  assert_param(IS_GPIO_ALL_INSTANCE(GPIOx));
  assert_param(IS_GPIO_PIN(GPIO_Init->Pin));
  assert_param(IS_GPIO_MODE(GPIO_Init->Mode));

  /* Configure the port pins */
  while (((GPIO_Init->Pin) >> position) != 0x00u)
 800117c:	680c      	ldr	r4, [r1, #0]
{
 800117e:	b085      	sub	sp, #20
  while (((GPIO_Init->Pin) >> position) != 0x00u)
 8001180:	2c00      	cmp	r4, #0
 8001182:	f000 809e 	beq.w	80012c2 <HAL_GPIO_Init+0x14a>
  uint32_t config = 0x00u;
 8001186:	2600      	movs	r6, #0
      /*--------------------- EXTI Mode Configuration ------------------------*/
      /* Configure the External Interrupt or event for the current IO */
      if ((GPIO_Init->Mode & EXTI_MODE) == EXTI_MODE)
      {
        /* Enable AFIO Clock */
        __HAL_RCC_AFIO_CLK_ENABLE();
 8001188:	f8df c1f4 	ldr.w	ip, [pc, #500]	; 8001380 <HAL_GPIO_Init+0x208>
  uint32_t position = 0x00u;
 800118c:	4633      	mov	r3, r6
        {
          SET_BIT(EXTI->FTSR, iocurrent);
        }
        else
        {
          CLEAR_BIT(EXTI->FTSR, iocurrent);
 800118e:	4f77      	ldr	r7, [pc, #476]	; (800136c <HAL_GPIO_Init+0x1f4>)
      switch (GPIO_Init->Mode)
 8001190:	f8df 81f0 	ldr.w	r8, [pc, #496]	; 8001384 <HAL_GPIO_Init+0x20c>
 8001194:	f8df e1f0 	ldr.w	lr, [pc, #496]	; 8001388 <HAL_GPIO_Init+0x210>
 8001198:	9000      	str	r0, [sp, #0]
 800119a:	e004      	b.n	80011a6 <HAL_GPIO_Init+0x2e>
        }
      }
    }

	position++;
 800119c:	3301      	adds	r3, #1
  while (((GPIO_Init->Pin) >> position) != 0x00u)
 800119e:	fa34 f203 	lsrs.w	r2, r4, r3
 80011a2:	f000 808e 	beq.w	80012c2 <HAL_GPIO_Init+0x14a>
    ioposition = (0x01uL << position);
 80011a6:	2201      	movs	r2, #1
 80011a8:	409a      	lsls	r2, r3
    if (iocurrent == ioposition)
 80011aa:	ea32 0004 	bics.w	r0, r2, r4
    iocurrent = (uint32_t)(GPIO_Init->Pin) & ioposition;
 80011ae:	ea02 0504 	and.w	r5, r2, r4
    if (iocurrent == ioposition)
 80011b2:	d1f3      	bne.n	800119c <HAL_GPIO_Init+0x24>
      switch (GPIO_Init->Mode)
 80011b4:	684c      	ldr	r4, [r1, #4]
 80011b6:	2c12      	cmp	r4, #18
 80011b8:	f200 8086 	bhi.w	80012c8 <HAL_GPIO_Init+0x150>
 80011bc:	2c12      	cmp	r4, #18
 80011be:	d80c      	bhi.n	80011da <HAL_GPIO_Init+0x62>
 80011c0:	e8df f004 	tbb	[pc, r4]
 80011c4:	0abcbf8a 	.word	0x0abcbf8a
 80011c8:	0b0b0b0b 	.word	0x0b0b0b0b
 80011cc:	0b0b0b0b 	.word	0x0b0b0b0b
 80011d0:	0b0b0b0b 	.word	0x0b0b0b0b
 80011d4:	b90b      	.short	0xb90b
 80011d6:	b6          	.byte	0xb6
 80011d7:	00          	.byte	0x00
 80011d8:	2600      	movs	r6, #0
      configregister = (iocurrent < GPIO_PIN_8) ? &GPIOx->CRL     : &GPIOx->CRH;
 80011da:	2dff      	cmp	r5, #255	; 0xff
 80011dc:	f200 8083 	bhi.w	80012e6 <HAL_GPIO_Init+0x16e>
 80011e0:	f8dd 9000 	ldr.w	r9, [sp]
      registeroffset = (iocurrent < GPIO_PIN_8) ? (position << 2u) : ((position - 8u) << 2u);
 80011e4:	ea4f 0a83 	mov.w	sl, r3, lsl #2
      MODIFY_REG((*configregister), ((GPIO_CRL_MODE0 | GPIO_CRL_CNF0) << registeroffset), (config << registeroffset));
 80011e8:	240f      	movs	r4, #15
 80011ea:	f8d9 2000 	ldr.w	r2, [r9]
 80011ee:	fa04 fb0a 	lsl.w	fp, r4, sl
 80011f2:	ea22 020b 	bic.w	r2, r2, fp
 80011f6:	fa06 fa0a 	lsl.w	sl, r6, sl
 80011fa:	ea42 020a 	orr.w	r2, r2, sl
 80011fe:	f8c9 2000 	str.w	r2, [r9]
      if ((GPIO_Init->Mode & EXTI_MODE) == EXTI_MODE)
 8001202:	f8d1 9004 	ldr.w	r9, [r1, #4]
 8001206:	f019 5f80 	tst.w	r9, #268435456	; 0x10000000
 800120a:	f000 808f 	beq.w	800132c <HAL_GPIO_Init+0x1b4>
        __HAL_RCC_AFIO_CLK_ENABLE();
 800120e:	f8dc a018 	ldr.w	sl, [ip, #24]
 8001212:	f023 0203 	bic.w	r2, r3, #3
 8001216:	f04a 0a01 	orr.w	sl, sl, #1
 800121a:	f8cc a018 	str.w	sl, [ip, #24]
 800121e:	f8dc a018 	ldr.w	sl, [ip, #24]
 8001222:	f102 4280 	add.w	r2, r2, #1073741824	; 0x40000000
 8001226:	f00a 0a01 	and.w	sl, sl, #1
 800122a:	f8cd a00c 	str.w	sl, [sp, #12]
 800122e:	f502 3280 	add.w	r2, r2, #65536	; 0x10000
        CLEAR_BIT(temp, (0x0Fu) << (4u * (position & 0x03u)));
 8001232:	f003 0a03 	and.w	sl, r3, #3
        __HAL_RCC_AFIO_CLK_ENABLE();
 8001236:	f8dd b00c 	ldr.w	fp, [sp, #12]
        CLEAR_BIT(temp, (0x0Fu) << (4u * (position & 0x03u)));
 800123a:	ea4f 0a8a 	mov.w	sl, sl, lsl #2
        temp = AFIO->EXTICR[position >> 2u];
 800123e:	f8d2 b008 	ldr.w	fp, [r2, #8]
        CLEAR_BIT(temp, (0x0Fu) << (4u * (position & 0x03u)));
 8001242:	fa04 f40a 	lsl.w	r4, r4, sl
 8001246:	ea2b 0004 	bic.w	r0, fp, r4
 800124a:	9001      	str	r0, [sp, #4]
        SET_BIT(temp, (GPIO_GET_INDEX(GPIOx)) << (4u * (position & 0x03u)));
 800124c:	9c00      	ldr	r4, [sp, #0]
 800124e:	4848      	ldr	r0, [pc, #288]	; (8001370 <HAL_GPIO_Init+0x1f8>)
 8001250:	4284      	cmp	r4, r0
 8001252:	d013      	beq.n	800127c <HAL_GPIO_Init+0x104>
 8001254:	f500 6080 	add.w	r0, r0, #1024	; 0x400
 8001258:	4284      	cmp	r4, r0
 800125a:	d07d      	beq.n	8001358 <HAL_GPIO_Init+0x1e0>
 800125c:	4845      	ldr	r0, [pc, #276]	; (8001374 <HAL_GPIO_Init+0x1fc>)
 800125e:	4284      	cmp	r4, r0
 8001260:	d071      	beq.n	8001346 <HAL_GPIO_Init+0x1ce>
 8001262:	4845      	ldr	r0, [pc, #276]	; (8001378 <HAL_GPIO_Init+0x200>)
 8001264:	4284      	cmp	r4, r0
 8001266:	bf0c      	ite	eq
 8001268:	f04f 0b03 	moveq.w	fp, #3
 800126c:	f04f 0b04 	movne.w	fp, #4
 8001270:	9801      	ldr	r0, [sp, #4]
 8001272:	fa0b fa0a 	lsl.w	sl, fp, sl
 8001276:	ea40 000a 	orr.w	r0, r0, sl
 800127a:	9001      	str	r0, [sp, #4]
        AFIO->EXTICR[position >> 2u] = temp;
 800127c:	9801      	ldr	r0, [sp, #4]
        if ((GPIO_Init->Mode & GPIO_MODE_IT) == GPIO_MODE_IT)
 800127e:	f419 3f80 	tst.w	r9, #65536	; 0x10000
        AFIO->EXTICR[position >> 2u] = temp;
 8001282:	6090      	str	r0, [r2, #8]
          SET_BIT(EXTI->IMR, iocurrent);
 8001284:	683a      	ldr	r2, [r7, #0]
 8001286:	bf14      	ite	ne
 8001288:	432a      	orrne	r2, r5
          CLEAR_BIT(EXTI->IMR, iocurrent);
 800128a:	43aa      	biceq	r2, r5
 800128c:	603a      	str	r2, [r7, #0]
          SET_BIT(EXTI->EMR, iocurrent);
 800128e:	687a      	ldr	r2, [r7, #4]
        if ((GPIO_Init->Mode & GPIO_MODE_EVT) == GPIO_MODE_EVT)
 8001290:	f419 3f00 	tst.w	r9, #131072	; 0x20000
          SET_BIT(EXTI->EMR, iocurrent);
 8001294:	bf14      	ite	ne
 8001296:	432a      	orrne	r2, r5
          CLEAR_BIT(EXTI->EMR, iocurrent);
 8001298:	43aa      	biceq	r2, r5
 800129a:	607a      	str	r2, [r7, #4]
          SET_BIT(EXTI->RTSR, iocurrent);
 800129c:	68ba      	ldr	r2, [r7, #8]
        if ((GPIO_Init->Mode & RISING_EDGE) == RISING_EDGE)
 800129e:	f419 1f80 	tst.w	r9, #1048576	; 0x100000
          SET_BIT(EXTI->RTSR, iocurrent);
 80012a2:	bf14      	ite	ne
 80012a4:	432a      	orrne	r2, r5
          CLEAR_BIT(EXTI->RTSR, iocurrent);
 80012a6:	43aa      	biceq	r2, r5
 80012a8:	60ba      	str	r2, [r7, #8]
        if ((GPIO_Init->Mode & FALLING_EDGE) == FALLING_EDGE)
 80012aa:	f419 1f00 	tst.w	r9, #2097152	; 0x200000
          SET_BIT(EXTI->FTSR, iocurrent);
 80012ae:	68fa      	ldr	r2, [r7, #12]
        if ((GPIO_Init->Mode & FALLING_EDGE) == FALLING_EDGE)
 80012b0:	d039      	beq.n	8001326 <HAL_GPIO_Init+0x1ae>
          SET_BIT(EXTI->FTSR, iocurrent);
 80012b2:	4315      	orrs	r5, r2
 80012b4:	60fd      	str	r5, [r7, #12]
 80012b6:	680c      	ldr	r4, [r1, #0]
	position++;
 80012b8:	3301      	adds	r3, #1
  while (((GPIO_Init->Pin) >> position) != 0x00u)
 80012ba:	fa34 f203 	lsrs.w	r2, r4, r3
 80012be:	f47f af72 	bne.w	80011a6 <HAL_GPIO_Init+0x2e>
  }
}
 80012c2:	b005      	add	sp, #20
 80012c4:	e8bd 8ff0 	ldmia.w	sp!, {r4, r5, r6, r7, r8, r9, sl, fp, pc}
      switch (GPIO_Init->Mode)
 80012c8:	4544      	cmp	r4, r8
 80012ca:	d005      	beq.n	80012d8 <HAL_GPIO_Init+0x160>
 80012cc:	d913      	bls.n	80012f6 <HAL_GPIO_Init+0x17e>
 80012ce:	4574      	cmp	r4, lr
 80012d0:	d002      	beq.n	80012d8 <HAL_GPIO_Init+0x160>
 80012d2:	482a      	ldr	r0, [pc, #168]	; (800137c <HAL_GPIO_Init+0x204>)
 80012d4:	4284      	cmp	r4, r0
 80012d6:	d180      	bne.n	80011da <HAL_GPIO_Init+0x62>
          if (GPIO_Init->Pull == GPIO_NOPULL)
 80012d8:	688c      	ldr	r4, [r1, #8]
 80012da:	b9e4      	cbnz	r4, 8001316 <HAL_GPIO_Init+0x19e>
      configregister = (iocurrent < GPIO_PIN_8) ? &GPIOx->CRL     : &GPIOx->CRH;
 80012dc:	2dff      	cmp	r5, #255	; 0xff
            config = GPIO_CR_MODE_INPUT + GPIO_CR_CNF_INPUT_FLOATING;
 80012de:	f04f 0604 	mov.w	r6, #4
      configregister = (iocurrent < GPIO_PIN_8) ? &GPIOx->CRL     : &GPIOx->CRH;
 80012e2:	f67f af7d 	bls.w	80011e0 <HAL_GPIO_Init+0x68>
 80012e6:	9a00      	ldr	r2, [sp, #0]
      registeroffset = (iocurrent < GPIO_PIN_8) ? (position << 2u) : ((position - 8u) << 2u);
 80012e8:	ea4f 0a83 	mov.w	sl, r3, lsl #2
 80012ec:	f1aa 0a20 	sub.w	sl, sl, #32
      configregister = (iocurrent < GPIO_PIN_8) ? &GPIOx->CRL     : &GPIOx->CRH;
 80012f0:	f102 0904 	add.w	r9, r2, #4
      registeroffset = (iocurrent < GPIO_PIN_8) ? (position << 2u) : ((position - 8u) << 2u);
 80012f4:	e778      	b.n	80011e8 <HAL_GPIO_Init+0x70>
      switch (GPIO_Init->Mode)
 80012f6:	f8df 9094 	ldr.w	r9, [pc, #148]	; 800138c <HAL_GPIO_Init+0x214>
 80012fa:	454c      	cmp	r4, r9
 80012fc:	d0ec      	beq.n	80012d8 <HAL_GPIO_Init+0x160>
 80012fe:	f509 2970 	add.w	r9, r9, #983040	; 0xf0000
 8001302:	454c      	cmp	r4, r9
 8001304:	d0e8      	beq.n	80012d8 <HAL_GPIO_Init+0x160>
 8001306:	f5a9 1980 	sub.w	r9, r9, #1048576	; 0x100000
 800130a:	454c      	cmp	r4, r9
 800130c:	f47f af65 	bne.w	80011da <HAL_GPIO_Init+0x62>
          if (GPIO_Init->Pull == GPIO_NOPULL)
 8001310:	688c      	ldr	r4, [r1, #8]
 8001312:	2c00      	cmp	r4, #0
 8001314:	d0e2      	beq.n	80012dc <HAL_GPIO_Init+0x164>
            GPIOx->BSRR = ioposition;
 8001316:	9800      	ldr	r0, [sp, #0]
          else if (GPIO_Init->Pull == GPIO_PULLUP)
 8001318:	2c01      	cmp	r4, #1
            config = GPIO_CR_MODE_INPUT + GPIO_CR_CNF_INPUT_PU_PD;
 800131a:	f04f 0608 	mov.w	r6, #8
            GPIOx->BSRR = ioposition;
 800131e:	bf0c      	ite	eq
 8001320:	6102      	streq	r2, [r0, #16]
            GPIOx->BRR = ioposition;
 8001322:	6142      	strne	r2, [r0, #20]
 8001324:	e759      	b.n	80011da <HAL_GPIO_Init+0x62>
          CLEAR_BIT(EXTI->FTSR, iocurrent);
 8001326:	ea22 0505 	bic.w	r5, r2, r5
 800132a:	60fd      	str	r5, [r7, #12]
 800132c:	680c      	ldr	r4, [r1, #0]
 800132e:	e735      	b.n	800119c <HAL_GPIO_Init+0x24>
          config = GPIO_Init->Speed + GPIO_CR_CNF_AF_OUTPUT_OD;
 8001330:	68ce      	ldr	r6, [r1, #12]
 8001332:	360c      	adds	r6, #12
          break;
 8001334:	e751      	b.n	80011da <HAL_GPIO_Init+0x62>
          config = GPIO_Init->Speed + GPIO_CR_CNF_GP_OUTPUT_OD;
 8001336:	68ce      	ldr	r6, [r1, #12]
 8001338:	3604      	adds	r6, #4
          break;
 800133a:	e74e      	b.n	80011da <HAL_GPIO_Init+0x62>
          config = GPIO_Init->Speed + GPIO_CR_CNF_AF_OUTPUT_PP;
 800133c:	68ce      	ldr	r6, [r1, #12]
 800133e:	3608      	adds	r6, #8
          break;
 8001340:	e74b      	b.n	80011da <HAL_GPIO_Init+0x62>
          config = GPIO_Init->Speed + GPIO_CR_CNF_GP_OUTPUT_PP;
 8001342:	68ce      	ldr	r6, [r1, #12]
          break;
 8001344:	e749      	b.n	80011da <HAL_GPIO_Init+0x62>
 8001346:	f04f 0b02 	mov.w	fp, #2
 800134a:	9801      	ldr	r0, [sp, #4]
 800134c:	fa0b fa0a 	lsl.w	sl, fp, sl
 8001350:	ea40 000a 	orr.w	r0, r0, sl
 8001354:	9001      	str	r0, [sp, #4]
 8001356:	e791      	b.n	800127c <HAL_GPIO_Init+0x104>
 8001358:	f04f 0b01 	mov.w	fp, #1
 800135c:	9801      	ldr	r0, [sp, #4]
 800135e:	fa0b fa0a 	lsl.w	sl, fp, sl
 8001362:	ea40 000a 	orr.w	r0, r0, sl
 8001366:	9001      	str	r0, [sp, #4]
 8001368:	e788      	b.n	800127c <HAL_GPIO_Init+0x104>
 800136a:	bf00      	nop
 800136c:	40010400 	.word	0x40010400
 8001370:	40010800 	.word	0x40010800
 8001374:	40011000 	.word	0x40011000
 8001378:	40011400 	.word	0x40011400
 800137c:	10320000 	.word	0x10320000
 8001380:	40021000 	.word	0x40021000
 8001384:	10220000 	.word	0x10220000
 8001388:	10310000 	.word	0x10310000
 800138c:	10120000 	.word	0x10120000

08001390 <HAL_GPIO_WritePin>:
{
  /* Check the parameters */
  assert_param(IS_GPIO_PIN(GPIO_Pin));
  assert_param(IS_GPIO_PIN_ACTION(PinState));

  if (PinState != GPIO_PIN_RESET)
 8001390:	b902      	cbnz	r2, 8001394 <HAL_GPIO_WritePin+0x4>
  {
    GPIOx->BSRR = GPIO_Pin;
  }
  else
  {
    GPIOx->BSRR = (uint32_t)GPIO_Pin << 16u;
 8001392:	0409      	lsls	r1, r1, #16
 8001394:	6101      	str	r1, [r0, #16]
  }
}
 8001396:	4770      	bx	lr

08001398 <HAL_GPIO_TogglePin>:

  /* Check the parameters */
  assert_param(IS_GPIO_PIN(GPIO_Pin));

  /* get current Ouput Data Register value */
  odr = GPIOx->ODR;
 8001398:	68c3      	ldr	r3, [r0, #12]

  /* Set selected pins that were at low level, and reset ones that were high */
  GPIOx->BSRR = ((odr & GPIO_Pin) << GPIO_NUMBER) | (~odr & GPIO_Pin);
 800139a:	ea01 0203 	and.w	r2, r1, r3
 800139e:	ea21 0103 	bic.w	r1, r1, r3
 80013a2:	ea41 4102 	orr.w	r1, r1, r2, lsl #16
 80013a6:	6101      	str	r1, [r0, #16]
}
 80013a8:	4770      	bx	lr
 80013aa:	bf00      	nop

080013ac <HAL_RCC_OscConfig>:
{
  uint32_t tickstart;
  uint32_t pll_config;

  /* Check Null pointer */
  if (RCC_OscInitStruct == NULL)
 80013ac:	2800      	cmp	r0, #0
 80013ae:	f000 81c3 	beq.w	8001738 <HAL_RCC_OscConfig+0x38c>
{
 80013b2:	e92d 41f0 	stmdb	sp!, {r4, r5, r6, r7, r8, lr}

  /* Check the parameters */
  assert_param(IS_RCC_OSCILLATORTYPE(RCC_OscInitStruct->OscillatorType));

  /*------------------------------- HSE Configuration ------------------------*/
  if (((RCC_OscInitStruct->OscillatorType) & RCC_OSCILLATORTYPE_HSE) == RCC_OSCILLATORTYPE_HSE)
 80013b6:	6803      	ldr	r3, [r0, #0]
 80013b8:	4604      	mov	r4, r0
 80013ba:	07dd      	lsls	r5, r3, #31
{
 80013bc:	b082      	sub	sp, #8
  if (((RCC_OscInitStruct->OscillatorType) & RCC_OSCILLATORTYPE_HSE) == RCC_OSCILLATORTYPE_HSE)
 80013be:	d535      	bpl.n	800142c <HAL_RCC_OscConfig+0x80>
  {
    /* Check the parameters */
    assert_param(IS_RCC_HSE(RCC_OscInitStruct->HSEState));

    /* When the HSE is used as system clock or clock source for PLL in these cases it is not allowed to be disabled */
    if ((__HAL_RCC_GET_SYSCLK_SOURCE() == RCC_SYSCLKSOURCE_STATUS_HSE)
 80013c0:	49a6      	ldr	r1, [pc, #664]	; (800165c <HAL_RCC_OscConfig+0x2b0>)
 80013c2:	684a      	ldr	r2, [r1, #4]
 80013c4:	f002 020c 	and.w	r2, r2, #12
 80013c8:	2a04      	cmp	r2, #4
 80013ca:	f000 80ef 	beq.w	80015ac <HAL_RCC_OscConfig+0x200>
        || ((__HAL_RCC_GET_SYSCLK_SOURCE() == RCC_SYSCLKSOURCE_STATUS_PLLCLK) && (__HAL_RCC_GET_PLL_OSCSOURCE() == RCC_PLLSOURCE_HSE)))
 80013ce:	684a      	ldr	r2, [r1, #4]
 80013d0:	f002 020c 	and.w	r2, r2, #12
 80013d4:	2a08      	cmp	r2, #8
 80013d6:	f000 80e5 	beq.w	80015a4 <HAL_RCC_OscConfig+0x1f8>
      }
    }
    else
    {
      /* Set the new HSE configuration ---------------------------------------*/
      __HAL_RCC_HSE_CONFIG(RCC_OscInitStruct->HSEState);
 80013da:	6863      	ldr	r3, [r4, #4]
 80013dc:	f5b3 3f80 	cmp.w	r3, #65536	; 0x10000
 80013e0:	d010      	beq.n	8001404 <HAL_RCC_OscConfig+0x58>
 80013e2:	2b00      	cmp	r3, #0
 80013e4:	f000 810d 	beq.w	8001602 <HAL_RCC_OscConfig+0x256>
 80013e8:	f5b3 2fa0 	cmp.w	r3, #327680	; 0x50000
 80013ec:	f000 818f 	beq.w	800170e <HAL_RCC_OscConfig+0x362>
 80013f0:	4b9a      	ldr	r3, [pc, #616]	; (800165c <HAL_RCC_OscConfig+0x2b0>)
 80013f2:	681a      	ldr	r2, [r3, #0]
 80013f4:	f422 3280 	bic.w	r2, r2, #65536	; 0x10000
 80013f8:	601a      	str	r2, [r3, #0]
 80013fa:	681a      	ldr	r2, [r3, #0]
 80013fc:	f422 2280 	bic.w	r2, r2, #262144	; 0x40000
 8001400:	601a      	str	r2, [r3, #0]
 8001402:	e004      	b.n	800140e <HAL_RCC_OscConfig+0x62>
 8001404:	4a95      	ldr	r2, [pc, #596]	; (800165c <HAL_RCC_OscConfig+0x2b0>)
 8001406:	6813      	ldr	r3, [r2, #0]
 8001408:	f443 3380 	orr.w	r3, r3, #65536	; 0x10000
 800140c:	6013      	str	r3, [r2, #0]

      /* Check the HSE State */
      if (RCC_OscInitStruct->HSEState != RCC_HSE_OFF)
      {
        /* Get Start Tick */
        tickstart = HAL_GetTick();
 800140e:	f7ff fdd1 	bl	8000fb4 <HAL_GetTick>

        /* Wait till HSE is ready */
        while (__HAL_RCC_GET_FLAG(RCC_FLAG_HSERDY) == RESET)
 8001412:	4e92      	ldr	r6, [pc, #584]	; (800165c <HAL_RCC_OscConfig+0x2b0>)
        tickstart = HAL_GetTick();
 8001414:	4605      	mov	r5, r0
        while (__HAL_RCC_GET_FLAG(RCC_FLAG_HSERDY) == RESET)
 8001416:	e005      	b.n	8001424 <HAL_RCC_OscConfig+0x78>
        {
          if ((HAL_GetTick() - tickstart) > HSE_TIMEOUT_VALUE)
 8001418:	f7ff fdcc 	bl	8000fb4 <HAL_GetTick>
 800141c:	1b40      	subs	r0, r0, r5
 800141e:	2864      	cmp	r0, #100	; 0x64
 8001420:	f200 80eb 	bhi.w	80015fa <HAL_RCC_OscConfig+0x24e>
        while (__HAL_RCC_GET_FLAG(RCC_FLAG_HSERDY) == RESET)
 8001424:	6833      	ldr	r3, [r6, #0]
 8001426:	039a      	lsls	r2, r3, #14
 8001428:	d5f6      	bpl.n	8001418 <HAL_RCC_OscConfig+0x6c>
 800142a:	6823      	ldr	r3, [r4, #0]
        }
      }
    }
  }
  /*----------------------------- HSI Configuration --------------------------*/
  if (((RCC_OscInitStruct->OscillatorType) & RCC_OSCILLATORTYPE_HSI) == RCC_OSCILLATORTYPE_HSI)
 800142c:	079f      	lsls	r7, r3, #30
 800142e:	d528      	bpl.n	8001482 <HAL_RCC_OscConfig+0xd6>
    /* Check the parameters */
    assert_param(IS_RCC_HSI(RCC_OscInitStruct->HSIState));
    assert_param(IS_RCC_CALIBRATION_VALUE(RCC_OscInitStruct->HSICalibrationValue));

    /* Check if HSI is used as system clock or as PLL source when PLL is selected as system clock */
    if ((__HAL_RCC_GET_SYSCLK_SOURCE() == RCC_SYSCLKSOURCE_STATUS_HSI)
 8001430:	4a8a      	ldr	r2, [pc, #552]	; (800165c <HAL_RCC_OscConfig+0x2b0>)
 8001432:	6851      	ldr	r1, [r2, #4]
 8001434:	f011 0f0c 	tst.w	r1, #12
 8001438:	f000 808e 	beq.w	8001558 <HAL_RCC_OscConfig+0x1ac>
        || ((__HAL_RCC_GET_SYSCLK_SOURCE() == RCC_SYSCLKSOURCE_STATUS_PLLCLK) && (__HAL_RCC_GET_PLL_OSCSOURCE() == RCC_PLLSOURCE_HSI_DIV2)))
 800143c:	6851      	ldr	r1, [r2, #4]
 800143e:	f001 010c 	and.w	r1, r1, #12
 8001442:	2908      	cmp	r1, #8
 8001444:	f000 8084 	beq.w	8001550 <HAL_RCC_OscConfig+0x1a4>
      }
    }
    else
    {
      /* Check the HSI State */
      if (RCC_OscInitStruct->HSIState != RCC_HSI_OFF)
 8001448:	6923      	ldr	r3, [r4, #16]
 800144a:	2b00      	cmp	r3, #0
 800144c:	f000 8125 	beq.w	800169a <HAL_RCC_OscConfig+0x2ee>
      {
        /* Enable the Internal High Speed oscillator (HSI). */
        __HAL_RCC_HSI_ENABLE();
 8001450:	2201      	movs	r2, #1
 8001452:	4b83      	ldr	r3, [pc, #524]	; (8001660 <HAL_RCC_OscConfig+0x2b4>)

        /* Get Start Tick */
        tickstart = HAL_GetTick();

        /* Wait till HSI is ready */
        while (__HAL_RCC_GET_FLAG(RCC_FLAG_HSIRDY) == RESET)
 8001454:	4e81      	ldr	r6, [pc, #516]	; (800165c <HAL_RCC_OscConfig+0x2b0>)
        __HAL_RCC_HSI_ENABLE();
 8001456:	601a      	str	r2, [r3, #0]
        tickstart = HAL_GetTick();
 8001458:	f7ff fdac 	bl	8000fb4 <HAL_GetTick>
 800145c:	4605      	mov	r5, r0
        while (__HAL_RCC_GET_FLAG(RCC_FLAG_HSIRDY) == RESET)
 800145e:	e005      	b.n	800146c <HAL_RCC_OscConfig+0xc0>
        {
          if ((HAL_GetTick() - tickstart) > HSI_TIMEOUT_VALUE)
 8001460:	f7ff fda8 	bl	8000fb4 <HAL_GetTick>
 8001464:	1b40      	subs	r0, r0, r5
 8001466:	2802      	cmp	r0, #2
 8001468:	f200 80c7 	bhi.w	80015fa <HAL_RCC_OscConfig+0x24e>
        while (__HAL_RCC_GET_FLAG(RCC_FLAG_HSIRDY) == RESET)
 800146c:	6833      	ldr	r3, [r6, #0]
 800146e:	0798      	lsls	r0, r3, #30
 8001470:	d5f6      	bpl.n	8001460 <HAL_RCC_OscConfig+0xb4>
            return HAL_TIMEOUT;
          }
        }

        /* Adjusts the Internal High Speed oscillator (HSI) calibration value.*/
        __HAL_RCC_HSI_CALIBRATIONVALUE_ADJUST(RCC_OscInitStruct->HSICalibrationValue);
 8001472:	6833      	ldr	r3, [r6, #0]
 8001474:	6962      	ldr	r2, [r4, #20]
 8001476:	f023 03f8 	bic.w	r3, r3, #248	; 0xf8
 800147a:	ea43 03c2 	orr.w	r3, r3, r2, lsl #3
 800147e:	6033      	str	r3, [r6, #0]
 8001480:	6823      	ldr	r3, [r4, #0]
        }
      }
    }
  }
  /*------------------------------ LSI Configuration -------------------------*/
  if (((RCC_OscInitStruct->OscillatorType) & RCC_OSCILLATORTYPE_LSI) == RCC_OSCILLATORTYPE_LSI)
 8001482:	071a      	lsls	r2, r3, #28
 8001484:	d41f      	bmi.n	80014c6 <HAL_RCC_OscConfig+0x11a>
        }
      }
    }
  }
  /*------------------------------ LSE Configuration -------------------------*/
  if (((RCC_OscInitStruct->OscillatorType) & RCC_OSCILLATORTYPE_LSE) == RCC_OSCILLATORTYPE_LSE)
 8001486:	075d      	lsls	r5, r3, #29
 8001488:	d541      	bpl.n	800150e <HAL_RCC_OscConfig+0x162>
    /* Check the parameters */
    assert_param(IS_RCC_LSE(RCC_OscInitStruct->LSEState));

    /* Update LSE configuration in Backup Domain control register    */
    /* Requires to enable write access to Backup Domain of necessary */
    if (__HAL_RCC_PWR_IS_CLK_DISABLED())
 800148a:	4b74      	ldr	r3, [pc, #464]	; (800165c <HAL_RCC_OscConfig+0x2b0>)
 800148c:	69da      	ldr	r2, [r3, #28]
 800148e:	00d0      	lsls	r0, r2, #3
 8001490:	d57d      	bpl.n	800158e <HAL_RCC_OscConfig+0x1e2>
    FlagStatus       pwrclkchanged = RESET;
 8001492:	2500      	movs	r5, #0
    {
      __HAL_RCC_PWR_CLK_ENABLE();
      pwrclkchanged = SET;
    }

    if (HAL_IS_BIT_CLR(PWR->CR, PWR_CR_DBP))
 8001494:	4b73      	ldr	r3, [pc, #460]	; (8001664 <HAL_RCC_OscConfig+0x2b8>)
 8001496:	681a      	ldr	r2, [r3, #0]
 8001498:	05d1      	lsls	r1, r2, #23
 800149a:	f140 809d 	bpl.w	80015d8 <HAL_RCC_OscConfig+0x22c>
        }
      }
    }

    /* Set the new LSE configuration -----------------------------------------*/
    __HAL_RCC_LSE_CONFIG(RCC_OscInitStruct->LSEState);
 800149e:	68e3      	ldr	r3, [r4, #12]
 80014a0:	2b01      	cmp	r3, #1
 80014a2:	f000 810b 	beq.w	80016bc <HAL_RCC_OscConfig+0x310>
 80014a6:	2b00      	cmp	r3, #0
 80014a8:	f000 80c5 	beq.w	8001636 <HAL_RCC_OscConfig+0x28a>
 80014ac:	2b05      	cmp	r3, #5
 80014ae:	4b6b      	ldr	r3, [pc, #428]	; (800165c <HAL_RCC_OscConfig+0x2b0>)
 80014b0:	6a1a      	ldr	r2, [r3, #32]
 80014b2:	f000 8139 	beq.w	8001728 <HAL_RCC_OscConfig+0x37c>
 80014b6:	f022 0201 	bic.w	r2, r2, #1
 80014ba:	621a      	str	r2, [r3, #32]
 80014bc:	6a1a      	ldr	r2, [r3, #32]
 80014be:	f022 0204 	bic.w	r2, r2, #4
 80014c2:	621a      	str	r2, [r3, #32]
 80014c4:	e0ff      	b.n	80016c6 <HAL_RCC_OscConfig+0x31a>
    if (RCC_OscInitStruct->LSIState != RCC_LSI_OFF)
 80014c6:	69a3      	ldr	r3, [r4, #24]
 80014c8:	2b00      	cmp	r3, #0
 80014ca:	d050      	beq.n	800156e <HAL_RCC_OscConfig+0x1c2>
      __HAL_RCC_LSI_ENABLE();
 80014cc:	2201      	movs	r2, #1
 80014ce:	4b66      	ldr	r3, [pc, #408]	; (8001668 <HAL_RCC_OscConfig+0x2bc>)
      while (__HAL_RCC_GET_FLAG(RCC_FLAG_LSIRDY) == RESET)
 80014d0:	4e62      	ldr	r6, [pc, #392]	; (800165c <HAL_RCC_OscConfig+0x2b0>)
      __HAL_RCC_LSI_ENABLE();
 80014d2:	601a      	str	r2, [r3, #0]
      tickstart = HAL_GetTick();
 80014d4:	f7ff fd6e 	bl	8000fb4 <HAL_GetTick>
 80014d8:	4605      	mov	r5, r0
      while (__HAL_RCC_GET_FLAG(RCC_FLAG_LSIRDY) == RESET)
 80014da:	e005      	b.n	80014e8 <HAL_RCC_OscConfig+0x13c>
        if ((HAL_GetTick() - tickstart) > LSI_TIMEOUT_VALUE)
 80014dc:	f7ff fd6a 	bl	8000fb4 <HAL_GetTick>
 80014e0:	1b40      	subs	r0, r0, r5
 80014e2:	2802      	cmp	r0, #2
 80014e4:	f200 8089 	bhi.w	80015fa <HAL_RCC_OscConfig+0x24e>
      while (__HAL_RCC_GET_FLAG(RCC_FLAG_LSIRDY) == RESET)
 80014e8:	6a73      	ldr	r3, [r6, #36]	; 0x24
 80014ea:	079b      	lsls	r3, r3, #30
 80014ec:	d5f6      	bpl.n	80014dc <HAL_RCC_OscConfig+0x130>
  * @param  mdelay: specifies the delay time length, in milliseconds.
  * @retval None
  */
static void RCC_Delay(uint32_t mdelay)
{
  __IO uint32_t Delay = mdelay * (SystemCoreClock / 8U / 1000U);
 80014ee:	4b5f      	ldr	r3, [pc, #380]	; (800166c <HAL_RCC_OscConfig+0x2c0>)
 80014f0:	4a5f      	ldr	r2, [pc, #380]	; (8001670 <HAL_RCC_OscConfig+0x2c4>)
 80014f2:	681b      	ldr	r3, [r3, #0]
 80014f4:	fba2 2303 	umull	r2, r3, r2, r3
 80014f8:	0a5b      	lsrs	r3, r3, #9
 80014fa:	9301      	str	r3, [sp, #4]
  do
  {
    __NOP();
 80014fc:	bf00      	nop
  }
  while (Delay --);
 80014fe:	9b01      	ldr	r3, [sp, #4]
 8001500:	1e5a      	subs	r2, r3, #1
 8001502:	9201      	str	r2, [sp, #4]
 8001504:	2b00      	cmp	r3, #0
 8001506:	d1f9      	bne.n	80014fc <HAL_RCC_OscConfig+0x150>
 8001508:	6823      	ldr	r3, [r4, #0]
  if (((RCC_OscInitStruct->OscillatorType) & RCC_OSCILLATORTYPE_LSE) == RCC_OSCILLATORTYPE_LSE)
 800150a:	075d      	lsls	r5, r3, #29
 800150c:	d4bd      	bmi.n	800148a <HAL_RCC_OscConfig+0xde>
  if ((RCC_OscInitStruct->PLL.PLLState) != RCC_PLL_NONE)
 800150e:	69e0      	ldr	r0, [r4, #28]
 8001510:	b1d0      	cbz	r0, 8001548 <HAL_RCC_OscConfig+0x19c>
    if (__HAL_RCC_GET_SYSCLK_SOURCE() != RCC_SYSCLKSOURCE_STATUS_PLLCLK)
 8001512:	4d52      	ldr	r5, [pc, #328]	; (800165c <HAL_RCC_OscConfig+0x2b0>)
 8001514:	686a      	ldr	r2, [r5, #4]
 8001516:	f002 020c 	and.w	r2, r2, #12
 800151a:	2a08      	cmp	r2, #8
 800151c:	f000 80e6 	beq.w	80016ec <HAL_RCC_OscConfig+0x340>
      if ((RCC_OscInitStruct->PLL.PLLState) == RCC_PLL_ON)
 8001520:	2802      	cmp	r0, #2
        __HAL_RCC_PLL_DISABLE();
 8001522:	f04f 0100 	mov.w	r1, #0
 8001526:	4a53      	ldr	r2, [pc, #332]	; (8001674 <HAL_RCC_OscConfig+0x2c8>)
      if ((RCC_OscInitStruct->PLL.PLLState) == RCC_PLL_ON)
 8001528:	f000 8108 	beq.w	800173c <HAL_RCC_OscConfig+0x390>
        __HAL_RCC_PLL_DISABLE();
 800152c:	6011      	str	r1, [r2, #0]
        tickstart = HAL_GetTick();
 800152e:	f7ff fd41 	bl	8000fb4 <HAL_GetTick>
        while (__HAL_RCC_GET_FLAG(RCC_FLAG_PLLRDY)  != RESET)
 8001532:	462c      	mov	r4, r5
        tickstart = HAL_GetTick();
 8001534:	4605      	mov	r5, r0
        while (__HAL_RCC_GET_FLAG(RCC_FLAG_PLLRDY)  != RESET)
 8001536:	e004      	b.n	8001542 <HAL_RCC_OscConfig+0x196>
          if ((HAL_GetTick() - tickstart) > PLL_TIMEOUT_VALUE)
 8001538:	f7ff fd3c 	bl	8000fb4 <HAL_GetTick>
 800153c:	1b40      	subs	r0, r0, r5
 800153e:	2802      	cmp	r0, #2
 8001540:	d85b      	bhi.n	80015fa <HAL_RCC_OscConfig+0x24e>
        while (__HAL_RCC_GET_FLAG(RCC_FLAG_PLLRDY)  != RESET)
 8001542:	6823      	ldr	r3, [r4, #0]
 8001544:	019b      	lsls	r3, r3, #6
 8001546:	d4f7      	bmi.n	8001538 <HAL_RCC_OscConfig+0x18c>
  return HAL_OK;
 8001548:	2000      	movs	r0, #0
}
 800154a:	b002      	add	sp, #8
 800154c:	e8bd 81f0 	ldmia.w	sp!, {r4, r5, r6, r7, r8, pc}
        || ((__HAL_RCC_GET_SYSCLK_SOURCE() == RCC_SYSCLKSOURCE_STATUS_PLLCLK) && (__HAL_RCC_GET_PLL_OSCSOURCE() == RCC_PLLSOURCE_HSI_DIV2)))
 8001550:	6852      	ldr	r2, [r2, #4]
 8001552:	03d6      	lsls	r6, r2, #15
 8001554:	f53f af78 	bmi.w	8001448 <HAL_RCC_OscConfig+0x9c>
      if ((__HAL_RCC_GET_FLAG(RCC_FLAG_HSIRDY) != RESET) && (RCC_OscInitStruct->HSIState != RCC_HSI_ON))
 8001558:	4a40      	ldr	r2, [pc, #256]	; (800165c <HAL_RCC_OscConfig+0x2b0>)
 800155a:	6812      	ldr	r2, [r2, #0]
 800155c:	0795      	lsls	r5, r2, #30
 800155e:	d52f      	bpl.n	80015c0 <HAL_RCC_OscConfig+0x214>
 8001560:	6922      	ldr	r2, [r4, #16]
 8001562:	2a01      	cmp	r2, #1
 8001564:	d02c      	beq.n	80015c0 <HAL_RCC_OscConfig+0x214>
        return HAL_ERROR;
 8001566:	2001      	movs	r0, #1
}
 8001568:	b002      	add	sp, #8
 800156a:	e8bd 81f0 	ldmia.w	sp!, {r4, r5, r6, r7, r8, pc}
      __HAL_RCC_LSI_DISABLE();
 800156e:	4a3e      	ldr	r2, [pc, #248]	; (8001668 <HAL_RCC_OscConfig+0x2bc>)
      while (__HAL_RCC_GET_FLAG(RCC_FLAG_LSIRDY) != RESET)
 8001570:	4e3a      	ldr	r6, [pc, #232]	; (800165c <HAL_RCC_OscConfig+0x2b0>)
      __HAL_RCC_LSI_DISABLE();
 8001572:	6013      	str	r3, [r2, #0]
      tickstart = HAL_GetTick();
 8001574:	f7ff fd1e 	bl	8000fb4 <HAL_GetTick>
 8001578:	4605      	mov	r5, r0
      while (__HAL_RCC_GET_FLAG(RCC_FLAG_LSIRDY) != RESET)
 800157a:	e004      	b.n	8001586 <HAL_RCC_OscConfig+0x1da>
        if ((HAL_GetTick() - tickstart) > LSI_TIMEOUT_VALUE)
 800157c:	f7ff fd1a 	bl	8000fb4 <HAL_GetTick>
 8001580:	1b40      	subs	r0, r0, r5
 8001582:	2802      	cmp	r0, #2
 8001584:	d839      	bhi.n	80015fa <HAL_RCC_OscConfig+0x24e>
      while (__HAL_RCC_GET_FLAG(RCC_FLAG_LSIRDY) != RESET)
 8001586:	6a73      	ldr	r3, [r6, #36]	; 0x24
 8001588:	079f      	lsls	r7, r3, #30
 800158a:	d4f7      	bmi.n	800157c <HAL_RCC_OscConfig+0x1d0>
 800158c:	e7bc      	b.n	8001508 <HAL_RCC_OscConfig+0x15c>
      __HAL_RCC_PWR_CLK_ENABLE();
 800158e:	69da      	ldr	r2, [r3, #28]
      pwrclkchanged = SET;
 8001590:	2501      	movs	r5, #1
      __HAL_RCC_PWR_CLK_ENABLE();
 8001592:	f042 5280 	orr.w	r2, r2, #268435456	; 0x10000000
 8001596:	61da      	str	r2, [r3, #28]
 8001598:	69db      	ldr	r3, [r3, #28]
 800159a:	f003 5380 	and.w	r3, r3, #268435456	; 0x10000000
 800159e:	9300      	str	r3, [sp, #0]
 80015a0:	9b00      	ldr	r3, [sp, #0]
      pwrclkchanged = SET;
 80015a2:	e777      	b.n	8001494 <HAL_RCC_OscConfig+0xe8>
        || ((__HAL_RCC_GET_SYSCLK_SOURCE() == RCC_SYSCLKSOURCE_STATUS_PLLCLK) && (__HAL_RCC_GET_PLL_OSCSOURCE() == RCC_PLLSOURCE_HSE)))
 80015a4:	684a      	ldr	r2, [r1, #4]
 80015a6:	03d0      	lsls	r0, r2, #15
 80015a8:	f57f af17 	bpl.w	80013da <HAL_RCC_OscConfig+0x2e>
      if ((__HAL_RCC_GET_FLAG(RCC_FLAG_HSERDY) != RESET) && (RCC_OscInitStruct->HSEState == RCC_HSE_OFF))
 80015ac:	4a2b      	ldr	r2, [pc, #172]	; (800165c <HAL_RCC_OscConfig+0x2b0>)
 80015ae:	6812      	ldr	r2, [r2, #0]
 80015b0:	0391      	lsls	r1, r2, #14
 80015b2:	f57f af3b 	bpl.w	800142c <HAL_RCC_OscConfig+0x80>
 80015b6:	6862      	ldr	r2, [r4, #4]
 80015b8:	2a00      	cmp	r2, #0
 80015ba:	f47f af37 	bne.w	800142c <HAL_RCC_OscConfig+0x80>
 80015be:	e7d2      	b.n	8001566 <HAL_RCC_OscConfig+0x1ba>
        __HAL_RCC_HSI_CALIBRATIONVALUE_ADJUST(RCC_OscInitStruct->HSICalibrationValue);
 80015c0:	4926      	ldr	r1, [pc, #152]	; (800165c <HAL_RCC_OscConfig+0x2b0>)
 80015c2:	6960      	ldr	r0, [r4, #20]
 80015c4:	680a      	ldr	r2, [r1, #0]
 80015c6:	f022 02f8 	bic.w	r2, r2, #248	; 0xf8
 80015ca:	ea42 02c0 	orr.w	r2, r2, r0, lsl #3
 80015ce:	600a      	str	r2, [r1, #0]
  if (((RCC_OscInitStruct->OscillatorType) & RCC_OSCILLATORTYPE_LSI) == RCC_OSCILLATORTYPE_LSI)
 80015d0:	071a      	lsls	r2, r3, #28
 80015d2:	f57f af58 	bpl.w	8001486 <HAL_RCC_OscConfig+0xda>
 80015d6:	e776      	b.n	80014c6 <HAL_RCC_OscConfig+0x11a>
      SET_BIT(PWR->CR, PWR_CR_DBP);
 80015d8:	681a      	ldr	r2, [r3, #0]
      while (HAL_IS_BIT_CLR(PWR->CR, PWR_CR_DBP))
 80015da:	461f      	mov	r7, r3
      SET_BIT(PWR->CR, PWR_CR_DBP);
 80015dc:	f442 7280 	orr.w	r2, r2, #256	; 0x100
 80015e0:	601a      	str	r2, [r3, #0]
      tickstart = HAL_GetTick();
 80015e2:	f7ff fce7 	bl	8000fb4 <HAL_GetTick>
 80015e6:	4606      	mov	r6, r0
      while (HAL_IS_BIT_CLR(PWR->CR, PWR_CR_DBP))
 80015e8:	683b      	ldr	r3, [r7, #0]
 80015ea:	05da      	lsls	r2, r3, #23
 80015ec:	f53f af57 	bmi.w	800149e <HAL_RCC_OscConfig+0xf2>
        if ((HAL_GetTick() - tickstart) > RCC_DBP_TIMEOUT_VALUE)
 80015f0:	f7ff fce0 	bl	8000fb4 <HAL_GetTick>
 80015f4:	1b80      	subs	r0, r0, r6
 80015f6:	2864      	cmp	r0, #100	; 0x64
 80015f8:	d9f6      	bls.n	80015e8 <HAL_RCC_OscConfig+0x23c>
            return HAL_TIMEOUT;
 80015fa:	2003      	movs	r0, #3
}
 80015fc:	b002      	add	sp, #8
 80015fe:	e8bd 81f0 	ldmia.w	sp!, {r4, r5, r6, r7, r8, pc}
      __HAL_RCC_HSE_CONFIG(RCC_OscInitStruct->HSEState);
 8001602:	f103 4380 	add.w	r3, r3, #1073741824	; 0x40000000
 8001606:	f503 3304 	add.w	r3, r3, #135168	; 0x21000
 800160a:	681a      	ldr	r2, [r3, #0]
        while (__HAL_RCC_GET_FLAG(RCC_FLAG_HSERDY) != RESET)
 800160c:	461e      	mov	r6, r3
      __HAL_RCC_HSE_CONFIG(RCC_OscInitStruct->HSEState);
 800160e:	f422 3280 	bic.w	r2, r2, #65536	; 0x10000
 8001612:	601a      	str	r2, [r3, #0]
 8001614:	681a      	ldr	r2, [r3, #0]
 8001616:	f422 2280 	bic.w	r2, r2, #262144	; 0x40000
 800161a:	601a      	str	r2, [r3, #0]
        tickstart = HAL_GetTick();
 800161c:	f7ff fcca 	bl	8000fb4 <HAL_GetTick>
 8001620:	4605      	mov	r5, r0
        while (__HAL_RCC_GET_FLAG(RCC_FLAG_HSERDY) != RESET)
 8001622:	e004      	b.n	800162e <HAL_RCC_OscConfig+0x282>
          if ((HAL_GetTick() - tickstart) > HSE_TIMEOUT_VALUE)
 8001624:	f7ff fcc6 	bl	8000fb4 <HAL_GetTick>
 8001628:	1b40      	subs	r0, r0, r5
 800162a:	2864      	cmp	r0, #100	; 0x64
 800162c:	d8e5      	bhi.n	80015fa <HAL_RCC_OscConfig+0x24e>
        while (__HAL_RCC_GET_FLAG(RCC_FLAG_HSERDY) != RESET)
 800162e:	6833      	ldr	r3, [r6, #0]
 8001630:	039b      	lsls	r3, r3, #14
 8001632:	d4f7      	bmi.n	8001624 <HAL_RCC_OscConfig+0x278>
 8001634:	e6f9      	b.n	800142a <HAL_RCC_OscConfig+0x7e>
    __HAL_RCC_LSE_CONFIG(RCC_OscInitStruct->LSEState);
 8001636:	f103 4380 	add.w	r3, r3, #1073741824	; 0x40000000
 800163a:	f503 3304 	add.w	r3, r3, #135168	; 0x21000
 800163e:	6a1a      	ldr	r2, [r3, #32]
      while (__HAL_RCC_GET_FLAG(RCC_FLAG_LSERDY) != RESET)
 8001640:	461f      	mov	r7, r3
    __HAL_RCC_LSE_CONFIG(RCC_OscInitStruct->LSEState);
 8001642:	f022 0201 	bic.w	r2, r2, #1
 8001646:	621a      	str	r2, [r3, #32]
 8001648:	6a1a      	ldr	r2, [r3, #32]
        if ((HAL_GetTick() - tickstart) > RCC_LSE_TIMEOUT_VALUE)
 800164a:	f241 3888 	movw	r8, #5000	; 0x1388
    __HAL_RCC_LSE_CONFIG(RCC_OscInitStruct->LSEState);
 800164e:	f022 0204 	bic.w	r2, r2, #4
 8001652:	621a      	str	r2, [r3, #32]
      tickstart = HAL_GetTick();
 8001654:	f7ff fcae 	bl	8000fb4 <HAL_GetTick>
 8001658:	4606      	mov	r6, r0
      while (__HAL_RCC_GET_FLAG(RCC_FLAG_LSERDY) != RESET)
 800165a:	e012      	b.n	8001682 <HAL_RCC_OscConfig+0x2d6>
 800165c:	40021000 	.word	0x40021000
 8001660:	42420000 	.word	0x42420000
 8001664:	40007000 	.word	0x40007000
 8001668:	42420480 	.word	0x42420480
 800166c:	2000000c 	.word	0x2000000c
 8001670:	10624dd3 	.word	0x10624dd3
 8001674:	42420060 	.word	0x42420060
        if ((HAL_GetTick() - tickstart) > RCC_LSE_TIMEOUT_VALUE)
 8001678:	f7ff fc9c 	bl	8000fb4 <HAL_GetTick>
 800167c:	1b80      	subs	r0, r0, r6
 800167e:	4540      	cmp	r0, r8
 8001680:	d8bb      	bhi.n	80015fa <HAL_RCC_OscConfig+0x24e>
      while (__HAL_RCC_GET_FLAG(RCC_FLAG_LSERDY) != RESET)
 8001682:	6a3b      	ldr	r3, [r7, #32]
 8001684:	0798      	lsls	r0, r3, #30
 8001686:	d4f7      	bmi.n	8001678 <HAL_RCC_OscConfig+0x2cc>
    if (pwrclkchanged == SET)
 8001688:	2d00      	cmp	r5, #0
 800168a:	f43f af40 	beq.w	800150e <HAL_RCC_OscConfig+0x162>
      __HAL_RCC_PWR_CLK_DISABLE();
 800168e:	4a44      	ldr	r2, [pc, #272]	; (80017a0 <HAL_RCC_OscConfig+0x3f4>)
 8001690:	69d3      	ldr	r3, [r2, #28]
 8001692:	f023 5380 	bic.w	r3, r3, #268435456	; 0x10000000
 8001696:	61d3      	str	r3, [r2, #28]
 8001698:	e739      	b.n	800150e <HAL_RCC_OscConfig+0x162>
        __HAL_RCC_HSI_DISABLE();
 800169a:	4a42      	ldr	r2, [pc, #264]	; (80017a4 <HAL_RCC_OscConfig+0x3f8>)
        while (__HAL_RCC_GET_FLAG(RCC_FLAG_HSIRDY) != RESET)
 800169c:	4e40      	ldr	r6, [pc, #256]	; (80017a0 <HAL_RCC_OscConfig+0x3f4>)
        __HAL_RCC_HSI_DISABLE();
 800169e:	6013      	str	r3, [r2, #0]
        tickstart = HAL_GetTick();
 80016a0:	f7ff fc88 	bl	8000fb4 <HAL_GetTick>
 80016a4:	4605      	mov	r5, r0
        while (__HAL_RCC_GET_FLAG(RCC_FLAG_HSIRDY) != RESET)
 80016a6:	e004      	b.n	80016b2 <HAL_RCC_OscConfig+0x306>
          if ((HAL_GetTick() - tickstart) > HSI_TIMEOUT_VALUE)
 80016a8:	f7ff fc84 	bl	8000fb4 <HAL_GetTick>
 80016ac:	1b40      	subs	r0, r0, r5
 80016ae:	2802      	cmp	r0, #2
 80016b0:	d8a3      	bhi.n	80015fa <HAL_RCC_OscConfig+0x24e>
        while (__HAL_RCC_GET_FLAG(RCC_FLAG_HSIRDY) != RESET)
 80016b2:	6833      	ldr	r3, [r6, #0]
 80016b4:	0799      	lsls	r1, r3, #30
 80016b6:	d4f7      	bmi.n	80016a8 <HAL_RCC_OscConfig+0x2fc>
 80016b8:	6823      	ldr	r3, [r4, #0]
 80016ba:	e6e2      	b.n	8001482 <HAL_RCC_OscConfig+0xd6>
    __HAL_RCC_LSE_CONFIG(RCC_OscInitStruct->LSEState);
 80016bc:	4a38      	ldr	r2, [pc, #224]	; (80017a0 <HAL_RCC_OscConfig+0x3f4>)
 80016be:	6a13      	ldr	r3, [r2, #32]
 80016c0:	f043 0301 	orr.w	r3, r3, #1
 80016c4:	6213      	str	r3, [r2, #32]
      tickstart = HAL_GetTick();
 80016c6:	f7ff fc75 	bl	8000fb4 <HAL_GetTick>
        if ((HAL_GetTick() - tickstart) > RCC_LSE_TIMEOUT_VALUE)
 80016ca:	f241 3888 	movw	r8, #5000	; 0x1388
      tickstart = HAL_GetTick();
 80016ce:	4606      	mov	r6, r0
      while (__HAL_RCC_GET_FLAG(RCC_FLAG_LSERDY) == RESET)
 80016d0:	4f33      	ldr	r7, [pc, #204]	; (80017a0 <HAL_RCC_OscConfig+0x3f4>)
 80016d2:	e004      	b.n	80016de <HAL_RCC_OscConfig+0x332>
        if ((HAL_GetTick() - tickstart) > RCC_LSE_TIMEOUT_VALUE)
 80016d4:	f7ff fc6e 	bl	8000fb4 <HAL_GetTick>
 80016d8:	1b80      	subs	r0, r0, r6
 80016da:	4540      	cmp	r0, r8
 80016dc:	d88d      	bhi.n	80015fa <HAL_RCC_OscConfig+0x24e>
      while (__HAL_RCC_GET_FLAG(RCC_FLAG_LSERDY) == RESET)
 80016de:	6a3b      	ldr	r3, [r7, #32]
 80016e0:	079b      	lsls	r3, r3, #30
 80016e2:	d5f7      	bpl.n	80016d4 <HAL_RCC_OscConfig+0x328>
    if (pwrclkchanged == SET)
 80016e4:	2d00      	cmp	r5, #0
 80016e6:	f43f af12 	beq.w	800150e <HAL_RCC_OscConfig+0x162>
 80016ea:	e7d0      	b.n	800168e <HAL_RCC_OscConfig+0x2e2>
      if ((RCC_OscInitStruct->PLL.PLLState) == RCC_PLL_OFF)
 80016ec:	2801      	cmp	r0, #1
 80016ee:	f43f af2c 	beq.w	800154a <HAL_RCC_OscConfig+0x19e>
        pll_config = RCC->CFGR;
 80016f2:	686b      	ldr	r3, [r5, #4]
        if ((READ_BIT(pll_config, RCC_CFGR_PLLSRC) != RCC_OscInitStruct->PLL.PLLSource) ||
 80016f4:	6a22      	ldr	r2, [r4, #32]
 80016f6:	f403 3180 	and.w	r1, r3, #65536	; 0x10000
 80016fa:	4291      	cmp	r1, r2
 80016fc:	f47f af33 	bne.w	8001566 <HAL_RCC_OscConfig+0x1ba>
 8001700:	6a60      	ldr	r0, [r4, #36]	; 0x24
            (READ_BIT(pll_config, RCC_CFGR_PLLMULL) != RCC_OscInitStruct->PLL.PLLMUL))
 8001702:	f403 1370 	and.w	r3, r3, #3932160	; 0x3c0000
  return HAL_OK;
 8001706:	1a18      	subs	r0, r3, r0
 8001708:	bf18      	it	ne
 800170a:	2001      	movne	r0, #1
 800170c:	e71d      	b.n	800154a <HAL_RCC_OscConfig+0x19e>
      __HAL_RCC_HSE_CONFIG(RCC_OscInitStruct->HSEState);
 800170e:	f103 4380 	add.w	r3, r3, #1073741824	; 0x40000000
 8001712:	f5a3 333c 	sub.w	r3, r3, #192512	; 0x2f000
 8001716:	681a      	ldr	r2, [r3, #0]
 8001718:	f442 2280 	orr.w	r2, r2, #262144	; 0x40000
 800171c:	601a      	str	r2, [r3, #0]
 800171e:	681a      	ldr	r2, [r3, #0]
 8001720:	f442 3280 	orr.w	r2, r2, #65536	; 0x10000
 8001724:	601a      	str	r2, [r3, #0]
 8001726:	e672      	b.n	800140e <HAL_RCC_OscConfig+0x62>
    __HAL_RCC_LSE_CONFIG(RCC_OscInitStruct->LSEState);
 8001728:	f042 0204 	orr.w	r2, r2, #4
 800172c:	621a      	str	r2, [r3, #32]
 800172e:	6a1a      	ldr	r2, [r3, #32]
 8001730:	f042 0201 	orr.w	r2, r2, #1
 8001734:	621a      	str	r2, [r3, #32]
 8001736:	e7c6      	b.n	80016c6 <HAL_RCC_OscConfig+0x31a>
    return HAL_ERROR;
 8001738:	2001      	movs	r0, #1
}
 800173a:	4770      	bx	lr
        __HAL_RCC_PLL_DISABLE();
 800173c:	6011      	str	r1, [r2, #0]
        tickstart = HAL_GetTick();
 800173e:	f7ff fc39 	bl	8000fb4 <HAL_GetTick>
 8001742:	4606      	mov	r6, r0
        while (__HAL_RCC_GET_FLAG(RCC_FLAG_PLLRDY)  != RESET)
 8001744:	e005      	b.n	8001752 <HAL_RCC_OscConfig+0x3a6>
          if ((HAL_GetTick() - tickstart) > PLL_TIMEOUT_VALUE)
 8001746:	f7ff fc35 	bl	8000fb4 <HAL_GetTick>
 800174a:	1b80      	subs	r0, r0, r6
 800174c:	2802      	cmp	r0, #2
 800174e:	f63f af54 	bhi.w	80015fa <HAL_RCC_OscConfig+0x24e>
        while (__HAL_RCC_GET_FLAG(RCC_FLAG_PLLRDY)  != RESET)
 8001752:	682b      	ldr	r3, [r5, #0]
 8001754:	0199      	lsls	r1, r3, #6
 8001756:	d4f6      	bmi.n	8001746 <HAL_RCC_OscConfig+0x39a>
        if (RCC_OscInitStruct->PLL.PLLSource == RCC_PLLSOURCE_HSE)
 8001758:	6a23      	ldr	r3, [r4, #32]
 800175a:	f5b3 3f80 	cmp.w	r3, #65536	; 0x10000
 800175e:	d105      	bne.n	800176c <HAL_RCC_OscConfig+0x3c0>
          __HAL_RCC_HSE_PREDIV_CONFIG(RCC_OscInitStruct->HSEPredivValue);
 8001760:	686a      	ldr	r2, [r5, #4]
 8001762:	68a1      	ldr	r1, [r4, #8]
 8001764:	f422 3200 	bic.w	r2, r2, #131072	; 0x20000
 8001768:	430a      	orrs	r2, r1
 800176a:	606a      	str	r2, [r5, #4]
        __HAL_RCC_PLL_ENABLE();
 800176c:	2001      	movs	r0, #1
        __HAL_RCC_PLL_CONFIG(RCC_OscInitStruct->PLL.PLLSource,
 800176e:	4d0c      	ldr	r5, [pc, #48]	; (80017a0 <HAL_RCC_OscConfig+0x3f4>)
 8001770:	6a61      	ldr	r1, [r4, #36]	; 0x24
 8001772:	686a      	ldr	r2, [r5, #4]
 8001774:	430b      	orrs	r3, r1
 8001776:	f422 1274 	bic.w	r2, r2, #3997696	; 0x3d0000
        __HAL_RCC_PLL_ENABLE();
 800177a:	490b      	ldr	r1, [pc, #44]	; (80017a8 <HAL_RCC_OscConfig+0x3fc>)
        __HAL_RCC_PLL_CONFIG(RCC_OscInitStruct->PLL.PLLSource,
 800177c:	4313      	orrs	r3, r2
 800177e:	606b      	str	r3, [r5, #4]
        __HAL_RCC_PLL_ENABLE();
 8001780:	6008      	str	r0, [r1, #0]
        tickstart = HAL_GetTick();
 8001782:	f7ff fc17 	bl	8000fb4 <HAL_GetTick>
        while (__HAL_RCC_GET_FLAG(RCC_FLAG_PLLRDY)  == RESET)
 8001786:	462c      	mov	r4, r5
        tickstart = HAL_GetTick();
 8001788:	4605      	mov	r5, r0
        while (__HAL_RCC_GET_FLAG(RCC_FLAG_PLLRDY)  == RESET)
 800178a:	e005      	b.n	8001798 <HAL_RCC_OscConfig+0x3ec>
          if ((HAL_GetTick() - tickstart) > PLL_TIMEOUT_VALUE)
 800178c:	f7ff fc12 	bl	8000fb4 <HAL_GetTick>
 8001790:	1b40      	subs	r0, r0, r5
 8001792:	2802      	cmp	r0, #2
 8001794:	f63f af31 	bhi.w	80015fa <HAL_RCC_OscConfig+0x24e>
        while (__HAL_RCC_GET_FLAG(RCC_FLAG_PLLRDY)  == RESET)
 8001798:	6823      	ldr	r3, [r4, #0]
 800179a:	019a      	lsls	r2, r3, #6
 800179c:	d5f6      	bpl.n	800178c <HAL_RCC_OscConfig+0x3e0>
 800179e:	e6d3      	b.n	8001548 <HAL_RCC_OscConfig+0x19c>
 80017a0:	40021000 	.word	0x40021000
 80017a4:	42420000 	.word	0x42420000
 80017a8:	42420060 	.word	0x42420060

080017ac <HAL_RCC_ClockConfig>:
  if (RCC_ClkInitStruct == NULL)
 80017ac:	2800      	cmp	r0, #0
 80017ae:	f000 80af 	beq.w	8001910 <HAL_RCC_ClockConfig+0x164>
  if (FLatency > __HAL_FLASH_GET_LATENCY())
 80017b2:	4a5d      	ldr	r2, [pc, #372]	; (8001928 <HAL_RCC_ClockConfig+0x17c>)
{
 80017b4:	e92d 41f0 	stmdb	sp!, {r4, r5, r6, r7, r8, lr}
  if (FLatency > __HAL_FLASH_GET_LATENCY())
 80017b8:	6813      	ldr	r3, [r2, #0]
 80017ba:	4604      	mov	r4, r0
 80017bc:	f003 0307 	and.w	r3, r3, #7
 80017c0:	428b      	cmp	r3, r1
 80017c2:	460d      	mov	r5, r1
{
 80017c4:	b086      	sub	sp, #24
  if (FLatency > __HAL_FLASH_GET_LATENCY())
 80017c6:	d20d      	bcs.n	80017e4 <HAL_RCC_ClockConfig+0x38>
    __HAL_FLASH_SET_LATENCY(FLatency);
 80017c8:	6813      	ldr	r3, [r2, #0]
 80017ca:	f023 0307 	bic.w	r3, r3, #7
 80017ce:	430b      	orrs	r3, r1
 80017d0:	6013      	str	r3, [r2, #0]
    if (__HAL_FLASH_GET_LATENCY() != FLatency)
 80017d2:	6813      	ldr	r3, [r2, #0]
 80017d4:	f003 0307 	and.w	r3, r3, #7
 80017d8:	428b      	cmp	r3, r1
 80017da:	d003      	beq.n	80017e4 <HAL_RCC_ClockConfig+0x38>
    return HAL_ERROR;
 80017dc:	2001      	movs	r0, #1
}
 80017de:	b006      	add	sp, #24
 80017e0:	e8bd 81f0 	ldmia.w	sp!, {r4, r5, r6, r7, r8, pc}
if (((RCC_ClkInitStruct->ClockType) & RCC_CLOCKTYPE_HCLK) == RCC_CLOCKTYPE_HCLK)
 80017e4:	6823      	ldr	r3, [r4, #0]
 80017e6:	0798      	lsls	r0, r3, #30
 80017e8:	d514      	bpl.n	8001814 <HAL_RCC_ClockConfig+0x68>
    if (((RCC_ClkInitStruct->ClockType) & RCC_CLOCKTYPE_PCLK1) == RCC_CLOCKTYPE_PCLK1)
 80017ea:	0759      	lsls	r1, r3, #29
 80017ec:	d504      	bpl.n	80017f8 <HAL_RCC_ClockConfig+0x4c>
      MODIFY_REG(RCC->CFGR, RCC_CFGR_PPRE1, RCC_HCLK_DIV16);
 80017ee:	494f      	ldr	r1, [pc, #316]	; (800192c <HAL_RCC_ClockConfig+0x180>)
 80017f0:	684a      	ldr	r2, [r1, #4]
 80017f2:	f442 62e0 	orr.w	r2, r2, #1792	; 0x700
 80017f6:	604a      	str	r2, [r1, #4]
    if (((RCC_ClkInitStruct->ClockType) & RCC_CLOCKTYPE_PCLK2) == RCC_CLOCKTYPE_PCLK2)
 80017f8:	071a      	lsls	r2, r3, #28
 80017fa:	d504      	bpl.n	8001806 <HAL_RCC_ClockConfig+0x5a>
      MODIFY_REG(RCC->CFGR, RCC_CFGR_PPRE2, (RCC_HCLK_DIV16 << 3));
 80017fc:	494b      	ldr	r1, [pc, #300]	; (800192c <HAL_RCC_ClockConfig+0x180>)
 80017fe:	684a      	ldr	r2, [r1, #4]
 8001800:	f442 5260 	orr.w	r2, r2, #14336	; 0x3800
 8001804:	604a      	str	r2, [r1, #4]
    MODIFY_REG(RCC->CFGR, RCC_CFGR_HPRE, RCC_ClkInitStruct->AHBCLKDivider);
 8001806:	4949      	ldr	r1, [pc, #292]	; (800192c <HAL_RCC_ClockConfig+0x180>)
 8001808:	68a0      	ldr	r0, [r4, #8]
 800180a:	684a      	ldr	r2, [r1, #4]
 800180c:	f022 02f0 	bic.w	r2, r2, #240	; 0xf0
 8001810:	4302      	orrs	r2, r0
 8001812:	604a      	str	r2, [r1, #4]
  if (((RCC_ClkInitStruct->ClockType) & RCC_CLOCKTYPE_SYSCLK) == RCC_CLOCKTYPE_SYSCLK)
 8001814:	07db      	lsls	r3, r3, #31
 8001816:	d520      	bpl.n	800185a <HAL_RCC_ClockConfig+0xae>
    if (RCC_ClkInitStruct->SYSCLKSource == RCC_SYSCLKSOURCE_HSE)
 8001818:	6862      	ldr	r2, [r4, #4]
      if (__HAL_RCC_GET_FLAG(RCC_FLAG_HSERDY) == RESET)
 800181a:	4b44      	ldr	r3, [pc, #272]	; (800192c <HAL_RCC_ClockConfig+0x180>)
    if (RCC_ClkInitStruct->SYSCLKSource == RCC_SYSCLKSOURCE_HSE)
 800181c:	2a01      	cmp	r2, #1
      if (__HAL_RCC_GET_FLAG(RCC_FLAG_HSERDY) == RESET)
 800181e:	681b      	ldr	r3, [r3, #0]
    if (RCC_ClkInitStruct->SYSCLKSource == RCC_SYSCLKSOURCE_HSE)
 8001820:	d078      	beq.n	8001914 <HAL_RCC_ClockConfig+0x168>
    else if (RCC_ClkInitStruct->SYSCLKSource == RCC_SYSCLKSOURCE_PLLCLK)
 8001822:	2a02      	cmp	r2, #2
 8001824:	d071      	beq.n	800190a <HAL_RCC_ClockConfig+0x15e>
      if (__HAL_RCC_GET_FLAG(RCC_FLAG_HSIRDY) == RESET)
 8001826:	0798      	lsls	r0, r3, #30
 8001828:	d5d8      	bpl.n	80017dc <HAL_RCC_ClockConfig+0x30>
    __HAL_RCC_SYSCLK_CONFIG(RCC_ClkInitStruct->SYSCLKSource);
 800182a:	4e40      	ldr	r6, [pc, #256]	; (800192c <HAL_RCC_ClockConfig+0x180>)
      if ((HAL_GetTick() - tickstart) > CLOCKSWITCH_TIMEOUT_VALUE)
 800182c:	f241 3888 	movw	r8, #5000	; 0x1388
    __HAL_RCC_SYSCLK_CONFIG(RCC_ClkInitStruct->SYSCLKSource);
 8001830:	6873      	ldr	r3, [r6, #4]
 8001832:	f023 0303 	bic.w	r3, r3, #3
 8001836:	4313      	orrs	r3, r2
 8001838:	6073      	str	r3, [r6, #4]
    tickstart = HAL_GetTick();
 800183a:	f7ff fbbb 	bl	8000fb4 <HAL_GetTick>
 800183e:	4607      	mov	r7, r0
    while (__HAL_RCC_GET_SYSCLK_SOURCE() != (RCC_ClkInitStruct->SYSCLKSource << RCC_CFGR_SWS_Pos))
 8001840:	e004      	b.n	800184c <HAL_RCC_ClockConfig+0xa0>
      if ((HAL_GetTick() - tickstart) > CLOCKSWITCH_TIMEOUT_VALUE)
 8001842:	f7ff fbb7 	bl	8000fb4 <HAL_GetTick>
 8001846:	1bc0      	subs	r0, r0, r7
 8001848:	4540      	cmp	r0, r8
 800184a:	d866      	bhi.n	800191a <HAL_RCC_ClockConfig+0x16e>
    while (__HAL_RCC_GET_SYSCLK_SOURCE() != (RCC_ClkInitStruct->SYSCLKSource << RCC_CFGR_SWS_Pos))
 800184c:	6873      	ldr	r3, [r6, #4]
 800184e:	6862      	ldr	r2, [r4, #4]
 8001850:	f003 030c 	and.w	r3, r3, #12
 8001854:	ebb3 0f82 	cmp.w	r3, r2, lsl #2
 8001858:	d1f3      	bne.n	8001842 <HAL_RCC_ClockConfig+0x96>
  if (FLatency < __HAL_FLASH_GET_LATENCY())
 800185a:	4a33      	ldr	r2, [pc, #204]	; (8001928 <HAL_RCC_ClockConfig+0x17c>)
 800185c:	6813      	ldr	r3, [r2, #0]
 800185e:	f003 0307 	and.w	r3, r3, #7
 8001862:	42ab      	cmp	r3, r5
 8001864:	d909      	bls.n	800187a <HAL_RCC_ClockConfig+0xce>
    __HAL_FLASH_SET_LATENCY(FLatency);
 8001866:	6813      	ldr	r3, [r2, #0]
 8001868:	f023 0307 	bic.w	r3, r3, #7
 800186c:	432b      	orrs	r3, r5
 800186e:	6013      	str	r3, [r2, #0]
    if (__HAL_FLASH_GET_LATENCY() != FLatency)
 8001870:	6813      	ldr	r3, [r2, #0]
 8001872:	f003 0307 	and.w	r3, r3, #7
 8001876:	42ab      	cmp	r3, r5
 8001878:	d1b0      	bne.n	80017dc <HAL_RCC_ClockConfig+0x30>
if (((RCC_ClkInitStruct->ClockType) & RCC_CLOCKTYPE_PCLK1) == RCC_CLOCKTYPE_PCLK1)
 800187a:	6823      	ldr	r3, [r4, #0]
 800187c:	0759      	lsls	r1, r3, #29
 800187e:	d506      	bpl.n	800188e <HAL_RCC_ClockConfig+0xe2>
    MODIFY_REG(RCC->CFGR, RCC_CFGR_PPRE1, RCC_ClkInitStruct->APB1CLKDivider);
 8001880:	492a      	ldr	r1, [pc, #168]	; (800192c <HAL_RCC_ClockConfig+0x180>)
 8001882:	68e0      	ldr	r0, [r4, #12]
 8001884:	684a      	ldr	r2, [r1, #4]
 8001886:	f422 62e0 	bic.w	r2, r2, #1792	; 0x700
 800188a:	4302      	orrs	r2, r0
 800188c:	604a      	str	r2, [r1, #4]
  if (((RCC_ClkInitStruct->ClockType) & RCC_CLOCKTYPE_PCLK2) == RCC_CLOCKTYPE_PCLK2)
 800188e:	071a      	lsls	r2, r3, #28
 8001890:	d507      	bpl.n	80018a2 <HAL_RCC_ClockConfig+0xf6>
    MODIFY_REG(RCC->CFGR, RCC_CFGR_PPRE2, ((RCC_ClkInitStruct->APB2CLKDivider) << 3));
 8001892:	4a26      	ldr	r2, [pc, #152]	; (800192c <HAL_RCC_ClockConfig+0x180>)
 8001894:	6921      	ldr	r1, [r4, #16]
 8001896:	6853      	ldr	r3, [r2, #4]
 8001898:	f423 5360 	bic.w	r3, r3, #14336	; 0x3800
 800189c:	ea43 03c1 	orr.w	r3, r3, r1, lsl #3
 80018a0:	6053      	str	r3, [r2, #4]
  const uint8_t aPredivFactorTable[2] = {1, 2};
 80018a2:	f240 2201 	movw	r2, #513	; 0x201
  const uint8_t aPLLMULFactorTable[16] = {2, 3, 4, 5, 6, 7, 8, 9, 10, 11, 12, 13, 14, 15, 16, 16};
 80018a6:	4b22      	ldr	r3, [pc, #136]	; (8001930 <HAL_RCC_ClockConfig+0x184>)
 80018a8:	ac06      	add	r4, sp, #24
  const uint8_t aPredivFactorTable[2] = {1, 2};
 80018aa:	f8ad 2004 	strh.w	r2, [sp, #4]
  const uint8_t aPLLMULFactorTable[16] = {2, 3, 4, 5, 6, 7, 8, 9, 10, 11, 12, 13, 14, 15, 16, 16};
 80018ae:	cb0f      	ldmia	r3, {r0, r1, r2, r3}
 80018b0:	e904 000f 	stmdb	r4, {r0, r1, r2, r3}
  tmpreg = RCC->CFGR;
 80018b4:	491d      	ldr	r1, [pc, #116]	; (800192c <HAL_RCC_ClockConfig+0x180>)
 80018b6:	684a      	ldr	r2, [r1, #4]
  switch (tmpreg & RCC_CFGR_SWS)
 80018b8:	f002 030c 	and.w	r3, r2, #12
 80018bc:	2b08      	cmp	r3, #8
 80018be:	d011      	beq.n	80018e4 <HAL_RCC_ClockConfig+0x138>
      sysclockfreq = HSE_VALUE;
 80018c0:	4b1c      	ldr	r3, [pc, #112]	; (8001934 <HAL_RCC_ClockConfig+0x188>)
  SystemCoreClock = HAL_RCC_GetSysClockFreq() >> AHBPrescTable[(RCC->CFGR & RCC_CFGR_HPRE) >> RCC_CFGR_HPRE_Pos];
 80018c2:	4a1a      	ldr	r2, [pc, #104]	; (800192c <HAL_RCC_ClockConfig+0x180>)
 80018c4:	481c      	ldr	r0, [pc, #112]	; (8001938 <HAL_RCC_ClockConfig+0x18c>)
 80018c6:	6852      	ldr	r2, [r2, #4]
  HAL_InitTick(uwTickPrio);
 80018c8:	491c      	ldr	r1, [pc, #112]	; (800193c <HAL_RCC_ClockConfig+0x190>)
  SystemCoreClock = HAL_RCC_GetSysClockFreq() >> AHBPrescTable[(RCC->CFGR & RCC_CFGR_HPRE) >> RCC_CFGR_HPRE_Pos];
 80018ca:	f3c2 1203 	ubfx	r2, r2, #4, #4
 80018ce:	5c80      	ldrb	r0, [r0, r2]
 80018d0:	4a1b      	ldr	r2, [pc, #108]	; (8001940 <HAL_RCC_ClockConfig+0x194>)
 80018d2:	40c3      	lsrs	r3, r0
  HAL_InitTick(uwTickPrio);
 80018d4:	6808      	ldr	r0, [r1, #0]
  SystemCoreClock = HAL_RCC_GetSysClockFreq() >> AHBPrescTable[(RCC->CFGR & RCC_CFGR_HPRE) >> RCC_CFGR_HPRE_Pos];
 80018d6:	6013      	str	r3, [r2, #0]
  HAL_InitTick(uwTickPrio);
 80018d8:	f7ff fb2a 	bl	8000f30 <HAL_InitTick>
  return HAL_OK;
 80018dc:	2000      	movs	r0, #0
}
 80018de:	b006      	add	sp, #24
 80018e0:	e8bd 81f0 	ldmia.w	sp!, {r4, r5, r6, r7, r8, pc}
      pllmul = aPLLMULFactorTable[(uint32_t)(tmpreg & RCC_CFGR_PLLMULL) >> RCC_CFGR_PLLMULL_Pos];
 80018e4:	f3c2 4383 	ubfx	r3, r2, #18, #4
 80018e8:	4423      	add	r3, r4
 80018ea:	f813 0c10 	ldrb.w	r0, [r3, #-16]
      if ((tmpreg & RCC_CFGR_PLLSRC) != RCC_PLLSOURCE_HSI_DIV2)
 80018ee:	03d3      	lsls	r3, r2, #15
 80018f0:	d515      	bpl.n	800191e <HAL_RCC_ClockConfig+0x172>
        prediv = aPredivFactorTable[(uint32_t)(RCC->CFGR & RCC_CFGR_PLLXTPRE) >> RCC_CFGR_PLLXTPRE_Pos];
 80018f2:	684a      	ldr	r2, [r1, #4]
        pllclk = (uint32_t)((HSE_VALUE  * pllmul) / prediv);
 80018f4:	4b0f      	ldr	r3, [pc, #60]	; (8001934 <HAL_RCC_ClockConfig+0x188>)
        prediv = aPredivFactorTable[(uint32_t)(RCC->CFGR & RCC_CFGR_PLLXTPRE) >> RCC_CFGR_PLLXTPRE_Pos];
 80018f6:	f3c2 4240 	ubfx	r2, r2, #17, #1
        pllclk = (uint32_t)((HSE_VALUE  * pllmul) / prediv);
 80018fa:	fb03 f300 	mul.w	r3, r3, r0
        prediv = aPredivFactorTable[(uint32_t)(RCC->CFGR & RCC_CFGR_PLLXTPRE) >> RCC_CFGR_PLLXTPRE_Pos];
 80018fe:	4422      	add	r2, r4
 8001900:	f812 2c14 	ldrb.w	r2, [r2, #-20]
        pllclk = (uint32_t)((HSE_VALUE  * pllmul) / prediv);
 8001904:	fbb3 f3f2 	udiv	r3, r3, r2
 8001908:	e7db      	b.n	80018c2 <HAL_RCC_ClockConfig+0x116>
      if (__HAL_RCC_GET_FLAG(RCC_FLAG_PLLRDY) == RESET)
 800190a:	019e      	lsls	r6, r3, #6
 800190c:	d48d      	bmi.n	800182a <HAL_RCC_ClockConfig+0x7e>
 800190e:	e765      	b.n	80017dc <HAL_RCC_ClockConfig+0x30>
    return HAL_ERROR;
 8001910:	2001      	movs	r0, #1
}
 8001912:	4770      	bx	lr
      if (__HAL_RCC_GET_FLAG(RCC_FLAG_HSERDY) == RESET)
 8001914:	039f      	lsls	r7, r3, #14
 8001916:	d488      	bmi.n	800182a <HAL_RCC_ClockConfig+0x7e>
 8001918:	e760      	b.n	80017dc <HAL_RCC_ClockConfig+0x30>
        return HAL_TIMEOUT;
 800191a:	2003      	movs	r0, #3
 800191c:	e75f      	b.n	80017de <HAL_RCC_ClockConfig+0x32>
        pllclk = (uint32_t)((HSI_VALUE >> 1) * pllmul);
 800191e:	4b09      	ldr	r3, [pc, #36]	; (8001944 <HAL_RCC_ClockConfig+0x198>)
 8001920:	fb03 f300 	mul.w	r3, r3, r0
 8001924:	e7cd      	b.n	80018c2 <HAL_RCC_ClockConfig+0x116>
 8001926:	bf00      	nop
 8001928:	40022000 	.word	0x40022000
 800192c:	40021000 	.word	0x40021000
 8001930:	080024e0 	.word	0x080024e0
 8001934:	007a1200 	.word	0x007a1200
 8001938:	080024c8 	.word	0x080024c8
 800193c:	20000014 	.word	0x20000014
 8001940:	2000000c 	.word	0x2000000c
 8001944:	003d0900 	.word	0x003d0900

08001948 <HAL_RCC_GetPCLK1Freq>:
  return (HAL_RCC_GetHCLKFreq() >> APBPrescTable[(RCC->CFGR & RCC_CFGR_PPRE1) >> RCC_CFGR_PPRE1_Pos]);
 8001948:	4b04      	ldr	r3, [pc, #16]	; (800195c <HAL_RCC_GetPCLK1Freq+0x14>)
 800194a:	4905      	ldr	r1, [pc, #20]	; (8001960 <HAL_RCC_GetPCLK1Freq+0x18>)
 800194c:	685b      	ldr	r3, [r3, #4]
  return SystemCoreClock;
 800194e:	4a05      	ldr	r2, [pc, #20]	; (8001964 <HAL_RCC_GetPCLK1Freq+0x1c>)
  return (HAL_RCC_GetHCLKFreq() >> APBPrescTable[(RCC->CFGR & RCC_CFGR_PPRE1) >> RCC_CFGR_PPRE1_Pos]);
 8001950:	f3c3 2302 	ubfx	r3, r3, #8, #3
 8001954:	5ccb      	ldrb	r3, [r1, r3]
 8001956:	6810      	ldr	r0, [r2, #0]
}
 8001958:	40d8      	lsrs	r0, r3
 800195a:	4770      	bx	lr
 800195c:	40021000 	.word	0x40021000
 8001960:	080024d8 	.word	0x080024d8
 8001964:	2000000c 	.word	0x2000000c

08001968 <HAL_RCC_GetPCLK2Freq>:
  return (HAL_RCC_GetHCLKFreq() >> APBPrescTable[(RCC->CFGR & RCC_CFGR_PPRE2) >> RCC_CFGR_PPRE2_Pos]);
 8001968:	4b04      	ldr	r3, [pc, #16]	; (800197c <HAL_RCC_GetPCLK2Freq+0x14>)
 800196a:	4905      	ldr	r1, [pc, #20]	; (8001980 <HAL_RCC_GetPCLK2Freq+0x18>)
 800196c:	685b      	ldr	r3, [r3, #4]
  return SystemCoreClock;
 800196e:	4a05      	ldr	r2, [pc, #20]	; (8001984 <HAL_RCC_GetPCLK2Freq+0x1c>)
  return (HAL_RCC_GetHCLKFreq() >> APBPrescTable[(RCC->CFGR & RCC_CFGR_PPRE2) >> RCC_CFGR_PPRE2_Pos]);
 8001970:	f3c3 23c2 	ubfx	r3, r3, #11, #3
 8001974:	5ccb      	ldrb	r3, [r1, r3]
 8001976:	6810      	ldr	r0, [r2, #0]
}
 8001978:	40d8      	lsrs	r0, r3
 800197a:	4770      	bx	lr
 800197c:	40021000 	.word	0x40021000
 8001980:	080024d8 	.word	0x080024d8
 8001984:	2000000c 	.word	0x2000000c

08001988 <HAL_SPI_Init>:
  * @retval HAL status
  */
HAL_StatusTypeDef HAL_SPI_Init(SPI_HandleTypeDef *hspi)
{
  /* Check the SPI handle allocation */
  if (hspi == NULL)
 8001988:	2800      	cmp	r0, #0
 800198a:	d055      	beq.n	8001a38 <HAL_SPI_Init+0xb0>
{
 800198c:	b5f8      	push	{r3, r4, r5, r6, r7, lr}
  assert_param(IS_SPI_BAUDRATE_PRESCALER(hspi->Init.BaudRatePrescaler));
  assert_param(IS_SPI_FIRST_BIT(hspi->Init.FirstBit));
  /* TI mode is not supported on this device.
     TIMode parameter is mandatory equal to SPI_TIMODE_DISABLE */
  assert_param(IS_SPI_TIMODE(hspi->Init.TIMode));
  if (hspi->Init.TIMode == SPI_TIMODE_DISABLE)
 800198e:	6a43      	ldr	r3, [r0, #36]	; 0x24
 8001990:	4604      	mov	r4, r0
 8001992:	2b00      	cmp	r3, #0
 8001994:	d041      	beq.n	8001a1a <HAL_SPI_Init+0x92>
  else
  {
    assert_param(IS_SPI_BAUDRATE_PRESCALER(hspi->Init.BaudRatePrescaler));

    /* Force polarity and phase to TI protocaol requirements */
    hspi->Init.CLKPolarity = SPI_POLARITY_LOW;
 8001996:	2300      	movs	r3, #0
    hspi->Init.CLKPhase    = SPI_PHASE_1EDGE;
 8001998:	e9c0 3304 	strd	r3, r3, [r0, #16]
  if (hspi->Init.CRCCalculation == SPI_CRCCALCULATION_ENABLE)
  {
    assert_param(IS_SPI_CRC_POLYNOMIAL(hspi->Init.CRCPolynomial));
  }
#else
  hspi->Init.CRCCalculation = SPI_CRCCALCULATION_DISABLE;
 800199c:	2300      	movs	r3, #0
#endif /* USE_SPI_CRC */

  if (hspi->State == HAL_SPI_STATE_RESET)
 800199e:	f894 1051 	ldrb.w	r1, [r4, #81]	; 0x51
  hspi->Init.CRCCalculation = SPI_CRCCALCULATION_DISABLE;
 80019a2:	62a3      	str	r3, [r4, #40]	; 0x28
  if (hspi->State == HAL_SPI_STATE_RESET)
 80019a4:	f001 02ff 	and.w	r2, r1, #255	; 0xff
 80019a8:	2900      	cmp	r1, #0
 80019aa:	d03c      	beq.n	8001a26 <HAL_SPI_Init+0x9e>
 80019ac:	461a      	mov	r2, r3
  __HAL_SPI_DISABLE(hspi);

  /*----------------------- SPIx CR1 & CR2 Configuration ---------------------*/
  /* Configure : SPI Mode, Communication Mode, Data size, Clock polarity and phase, NSS management,
  Communication speed, First bit and CRC calculation state */
  WRITE_REG(hspi->Instance->CR1, ((hspi->Init.Mode & (SPI_CR1_MSTR | SPI_CR1_SSI)) |
 80019ae:	e9d4 3001 	ldrd	r3, r0, [r4, #4]
  hspi->State = HAL_SPI_STATE_BUSY;
 80019b2:	2702      	movs	r7, #2
  /* Activate the SPI mode (Make sure that I2SMOD bit in I2SCFGR register is reset) */
  CLEAR_BIT(hspi->Instance->I2SCFGR, SPI_I2SCFGR_I2SMOD);
#endif /* SPI_I2SCFGR_I2SMOD */

  hspi->ErrorCode = HAL_SPI_ERROR_NONE;
  hspi->State     = HAL_SPI_STATE_READY;
 80019b4:	2601      	movs	r6, #1
  hspi->ErrorCode = HAL_SPI_ERROR_NONE;
 80019b6:	2500      	movs	r5, #0
  WRITE_REG(hspi->Instance->CR1, ((hspi->Init.Mode & (SPI_CR1_MSTR | SPI_CR1_SSI)) |
 80019b8:	68e1      	ldr	r1, [r4, #12]
 80019ba:	f400 4004 	and.w	r0, r0, #33792	; 0x8400
 80019be:	f403 7382 	and.w	r3, r3, #260	; 0x104
 80019c2:	4303      	orrs	r3, r0
 80019c4:	6920      	ldr	r0, [r4, #16]
 80019c6:	f401 6100 	and.w	r1, r1, #2048	; 0x800
 80019ca:	4038      	ands	r0, r7
 80019cc:	430b      	orrs	r3, r1
 80019ce:	6961      	ldr	r1, [r4, #20]
 80019d0:	4303      	orrs	r3, r0
 80019d2:	69a0      	ldr	r0, [r4, #24]
 80019d4:	4031      	ands	r1, r6
 80019d6:	430b      	orrs	r3, r1
 80019d8:	f400 7100 	and.w	r1, r0, #512	; 0x200
 80019dc:	430b      	orrs	r3, r1
 80019de:	69e1      	ldr	r1, [r4, #28]
  hspi->State = HAL_SPI_STATE_BUSY;
 80019e0:	f884 7051 	strb.w	r7, [r4, #81]	; 0x51
  WRITE_REG(hspi->Instance->CR1, ((hspi->Init.Mode & (SPI_CR1_MSTR | SPI_CR1_SSI)) |
 80019e4:	6a27      	ldr	r7, [r4, #32]
 80019e6:	f001 0138 	and.w	r1, r1, #56	; 0x38
 80019ea:	430b      	orrs	r3, r1
 80019ec:	f007 0780 	and.w	r7, r7, #128	; 0x80
  __HAL_SPI_DISABLE(hspi);
 80019f0:	6821      	ldr	r1, [r4, #0]
  WRITE_REG(hspi->Instance->CR1, ((hspi->Init.Mode & (SPI_CR1_MSTR | SPI_CR1_SSI)) |
 80019f2:	433b      	orrs	r3, r7
 80019f4:	4313      	orrs	r3, r2
  __HAL_SPI_DISABLE(hspi);
 80019f6:	680a      	ldr	r2, [r1, #0]
  WRITE_REG(hspi->Instance->CR2, ((hspi->Init.NSS >> 16U) & SPI_CR2_SSOE));
 80019f8:	0c00      	lsrs	r0, r0, #16
 80019fa:	f000 0004 	and.w	r0, r0, #4
  __HAL_SPI_DISABLE(hspi);
 80019fe:	f022 0240 	bic.w	r2, r2, #64	; 0x40
 8001a02:	600a      	str	r2, [r1, #0]
  WRITE_REG(hspi->Instance->CR1, ((hspi->Init.Mode & (SPI_CR1_MSTR | SPI_CR1_SSI)) |
 8001a04:	600b      	str	r3, [r1, #0]
  WRITE_REG(hspi->Instance->CR2, ((hspi->Init.NSS >> 16U) & SPI_CR2_SSOE));
 8001a06:	6048      	str	r0, [r1, #4]
  CLEAR_BIT(hspi->Instance->I2SCFGR, SPI_I2SCFGR_I2SMOD);
 8001a08:	69cb      	ldr	r3, [r1, #28]

  return HAL_OK;
 8001a0a:	4628      	mov	r0, r5
  CLEAR_BIT(hspi->Instance->I2SCFGR, SPI_I2SCFGR_I2SMOD);
 8001a0c:	f423 6300 	bic.w	r3, r3, #2048	; 0x800
 8001a10:	61cb      	str	r3, [r1, #28]
  hspi->ErrorCode = HAL_SPI_ERROR_NONE;
 8001a12:	6565      	str	r5, [r4, #84]	; 0x54
  hspi->State     = HAL_SPI_STATE_READY;
 8001a14:	f884 6051 	strb.w	r6, [r4, #81]	; 0x51
}
 8001a18:	bdf8      	pop	{r3, r4, r5, r6, r7, pc}
    if (hspi->Init.Mode == SPI_MODE_MASTER)
 8001a1a:	6842      	ldr	r2, [r0, #4]
 8001a1c:	f5b2 7f82 	cmp.w	r2, #260	; 0x104
 8001a20:	d0bc      	beq.n	800199c <HAL_SPI_Init+0x14>
      hspi->Init.BaudRatePrescaler = SPI_BAUDRATEPRESCALER_2;
 8001a22:	61c3      	str	r3, [r0, #28]
 8001a24:	e7ba      	b.n	800199c <HAL_SPI_Init+0x14>
    hspi->Lock = HAL_UNLOCKED;
 8001a26:	f884 2050 	strb.w	r2, [r4, #80]	; 0x50
    HAL_SPI_MspInit(hspi);
 8001a2a:	4620      	mov	r0, r4
 8001a2c:	f7fe fd42 	bl	80004b4 <HAL_SPI_MspInit>
 8001a30:	6aa3      	ldr	r3, [r4, #40]	; 0x28
 8001a32:	f403 5200 	and.w	r2, r3, #8192	; 0x2000
 8001a36:	e7ba      	b.n	80019ae <HAL_SPI_Init+0x26>
    return HAL_ERROR;
 8001a38:	2001      	movs	r0, #1
}
 8001a3a:	4770      	bx	lr

08001a3c <HAL_TIM_Base_Init>:
  * @retval HAL status
  */
HAL_StatusTypeDef HAL_TIM_Base_Init(TIM_HandleTypeDef *htim)
{
  /* Check the TIM handle allocation */
  if (htim == NULL)
 8001a3c:	2800      	cmp	r0, #0
 8001a3e:	d05d      	beq.n	8001afc <HAL_TIM_Base_Init+0xc0>
{
 8001a40:	b538      	push	{r3, r4, r5, lr}
  assert_param(IS_TIM_INSTANCE(htim->Instance));
  assert_param(IS_TIM_COUNTER_MODE(htim->Init.CounterMode));
  assert_param(IS_TIM_CLOCKDIVISION_DIV(htim->Init.ClockDivision));
  assert_param(IS_TIM_AUTORELOAD_PRELOAD(htim->Init.AutoReloadPreload));

  if (htim->State == HAL_TIM_STATE_RESET)
 8001a42:	f890 303d 	ldrb.w	r3, [r0, #61]	; 0x3d
 8001a46:	4604      	mov	r4, r0
 8001a48:	f003 02ff 	and.w	r2, r3, #255	; 0xff
 8001a4c:	2b00      	cmp	r3, #0
 8001a4e:	d03c      	beq.n	8001aca <HAL_TIM_Base_Init+0x8e>
    HAL_TIM_Base_MspInit(htim);
#endif /* USE_HAL_TIM_REGISTER_CALLBACKS */
  }

  /* Set the TIM state */
  htim->State = HAL_TIM_STATE_BUSY;
 8001a50:	2302      	movs	r3, #2

  /* Set the Time Base configuration */
  TIM_Base_SetConfig(htim->Instance, &htim->Init);
 8001a52:	6822      	ldr	r2, [r4, #0]
{
  uint32_t tmpcr1;
  tmpcr1 = TIMx->CR1;

  /* Set TIM Time Base Unit parameters ---------------------------------------*/
  if (IS_TIM_COUNTER_MODE_SELECT_INSTANCE(TIMx))
 8001a54:	492a      	ldr	r1, [pc, #168]	; (8001b00 <HAL_TIM_Base_Init+0xc4>)
  htim->State = HAL_TIM_STATE_BUSY;
 8001a56:	f884 303d 	strb.w	r3, [r4, #61]	; 0x3d
  if (IS_TIM_COUNTER_MODE_SELECT_INSTANCE(TIMx))
 8001a5a:	428a      	cmp	r2, r1
  tmpcr1 = TIMx->CR1;
 8001a5c:	6813      	ldr	r3, [r2, #0]
  if (IS_TIM_COUNTER_MODE_SELECT_INSTANCE(TIMx))
 8001a5e:	d039      	beq.n	8001ad4 <HAL_TIM_Base_Init+0x98>
 8001a60:	f1b2 4f80 	cmp.w	r2, #1073741824	; 0x40000000
 8001a64:	d028      	beq.n	8001ab8 <HAL_TIM_Base_Init+0x7c>
 8001a66:	f5a1 3194 	sub.w	r1, r1, #75776	; 0x12800
 8001a6a:	428a      	cmp	r2, r1
 8001a6c:	d024      	beq.n	8001ab8 <HAL_TIM_Base_Init+0x7c>
 8001a6e:	f501 6180 	add.w	r1, r1, #1024	; 0x400
 8001a72:	428a      	cmp	r2, r1
 8001a74:	d020      	beq.n	8001ab8 <HAL_TIM_Base_Init+0x7c>
    tmpcr1 &= ~TIM_CR1_CKD;
    tmpcr1 |= (uint32_t)Structure->ClockDivision;
  }

  /* Set the auto-reload preload */
  MODIFY_REG(tmpcr1, TIM_CR1_ARPE, Structure->AutoReloadPreload);
 8001a76:	69a5      	ldr	r5, [r4, #24]

  TIMx->CR1 = tmpcr1;

  /* Set the Autoreload value */
  TIMx->ARR = (uint32_t)Structure->Period ;
 8001a78:	68e0      	ldr	r0, [r4, #12]

  /* Set the Prescaler value */
  TIMx->PSC = Structure->Prescaler;
 8001a7a:	6861      	ldr	r1, [r4, #4]
  MODIFY_REG(tmpcr1, TIM_CR1_ARPE, Structure->AutoReloadPreload);
 8001a7c:	f023 0380 	bic.w	r3, r3, #128	; 0x80
 8001a80:	432b      	orrs	r3, r5
  TIMx->CR1 = tmpcr1;
 8001a82:	6013      	str	r3, [r2, #0]
  TIMx->ARR = (uint32_t)Structure->Period ;
 8001a84:	62d0      	str	r0, [r2, #44]	; 0x2c
  TIMx->PSC = Structure->Prescaler;
 8001a86:	6291      	str	r1, [r2, #40]	; 0x28
    TIMx->RCR = Structure->RepetitionCounter;
  }

  /* Generate an update event to reload the Prescaler
     and the repetition counter (only for advanced timer) value immediately */
  TIMx->EGR = TIM_EGR_UG;
 8001a88:	2301      	movs	r3, #1
 8001a8a:	6153      	str	r3, [r2, #20]
  htim->DMABurstState = HAL_DMA_BURST_STATE_READY;
 8001a8c:	f884 3046 	strb.w	r3, [r4, #70]	; 0x46
  TIM_CHANNEL_STATE_SET_ALL(htim, HAL_TIM_CHANNEL_STATE_READY);
 8001a90:	f884 303e 	strb.w	r3, [r4, #62]	; 0x3e
 8001a94:	f884 303f 	strb.w	r3, [r4, #63]	; 0x3f
 8001a98:	f884 3040 	strb.w	r3, [r4, #64]	; 0x40
 8001a9c:	f884 3041 	strb.w	r3, [r4, #65]	; 0x41
  TIM_CHANNEL_N_STATE_SET_ALL(htim, HAL_TIM_CHANNEL_STATE_READY);
 8001aa0:	f884 3042 	strb.w	r3, [r4, #66]	; 0x42
 8001aa4:	f884 3043 	strb.w	r3, [r4, #67]	; 0x43
 8001aa8:	f884 3044 	strb.w	r3, [r4, #68]	; 0x44
 8001aac:	f884 3045 	strb.w	r3, [r4, #69]	; 0x45
  htim->State = HAL_TIM_STATE_READY;
 8001ab0:	f884 303d 	strb.w	r3, [r4, #61]	; 0x3d
  return HAL_OK;
 8001ab4:	2000      	movs	r0, #0
}
 8001ab6:	bd38      	pop	{r3, r4, r5, pc}
    tmpcr1 |= Structure->CounterMode;
 8001ab8:	68a1      	ldr	r1, [r4, #8]
    tmpcr1 &= ~(TIM_CR1_DIR | TIM_CR1_CMS);
 8001aba:	f023 0370 	bic.w	r3, r3, #112	; 0x70
    tmpcr1 |= Structure->CounterMode;
 8001abe:	430b      	orrs	r3, r1
    tmpcr1 |= (uint32_t)Structure->ClockDivision;
 8001ac0:	6921      	ldr	r1, [r4, #16]
    tmpcr1 &= ~TIM_CR1_CKD;
 8001ac2:	f423 7340 	bic.w	r3, r3, #768	; 0x300
    tmpcr1 |= (uint32_t)Structure->ClockDivision;
 8001ac6:	430b      	orrs	r3, r1
 8001ac8:	e7d5      	b.n	8001a76 <HAL_TIM_Base_Init+0x3a>
    htim->Lock = HAL_UNLOCKED;
 8001aca:	f880 203c 	strb.w	r2, [r0, #60]	; 0x3c
    HAL_TIM_Base_MspInit(htim);
 8001ace:	f7fe fd25 	bl	800051c <HAL_TIM_Base_MspInit>
 8001ad2:	e7bd      	b.n	8001a50 <HAL_TIM_Base_Init+0x14>
    tmpcr1 |= Structure->CounterMode;
 8001ad4:	68a1      	ldr	r1, [r4, #8]
    tmpcr1 &= ~(TIM_CR1_DIR | TIM_CR1_CMS);
 8001ad6:	f023 0370 	bic.w	r3, r3, #112	; 0x70
    tmpcr1 |= Structure->CounterMode;
 8001ada:	430b      	orrs	r3, r1
    tmpcr1 |= (uint32_t)Structure->ClockDivision;
 8001adc:	6921      	ldr	r1, [r4, #16]
    tmpcr1 &= ~TIM_CR1_CKD;
 8001ade:	f423 7340 	bic.w	r3, r3, #768	; 0x300
    tmpcr1 |= (uint32_t)Structure->ClockDivision;
 8001ae2:	430b      	orrs	r3, r1
  MODIFY_REG(tmpcr1, TIM_CR1_ARPE, Structure->AutoReloadPreload);
 8001ae4:	69a1      	ldr	r1, [r4, #24]
 8001ae6:	f023 0380 	bic.w	r3, r3, #128	; 0x80
 8001aea:	430b      	orrs	r3, r1
  TIMx->CR1 = tmpcr1;
 8001aec:	6013      	str	r3, [r2, #0]
  TIMx->ARR = (uint32_t)Structure->Period ;
 8001aee:	68e3      	ldr	r3, [r4, #12]
 8001af0:	62d3      	str	r3, [r2, #44]	; 0x2c
  TIMx->PSC = Structure->Prescaler;
 8001af2:	6863      	ldr	r3, [r4, #4]
 8001af4:	6293      	str	r3, [r2, #40]	; 0x28
    TIMx->RCR = Structure->RepetitionCounter;
 8001af6:	6963      	ldr	r3, [r4, #20]
 8001af8:	6313      	str	r3, [r2, #48]	; 0x30
 8001afa:	e7c5      	b.n	8001a88 <HAL_TIM_Base_Init+0x4c>
    return HAL_ERROR;
 8001afc:	2001      	movs	r0, #1
}
 8001afe:	4770      	bx	lr
 8001b00:	40012c00 	.word	0x40012c00

08001b04 <HAL_TIM_Base_Start_IT>:
  if (htim->State != HAL_TIM_STATE_READY)
 8001b04:	f890 303d 	ldrb.w	r3, [r0, #61]	; 0x3d
 8001b08:	2b01      	cmp	r3, #1
 8001b0a:	d11f      	bne.n	8001b4c <HAL_TIM_Base_Start_IT+0x48>
  htim->State = HAL_TIM_STATE_BUSY;
 8001b0c:	2202      	movs	r2, #2
  __HAL_TIM_ENABLE_IT(htim, TIM_IT_UPDATE);
 8001b0e:	6803      	ldr	r3, [r0, #0]
  htim->State = HAL_TIM_STATE_BUSY;
 8001b10:	f880 203d 	strb.w	r2, [r0, #61]	; 0x3d
  __HAL_TIM_ENABLE_IT(htim, TIM_IT_UPDATE);
 8001b14:	68da      	ldr	r2, [r3, #12]
  if (IS_TIM_SLAVE_INSTANCE(htim->Instance))
 8001b16:	490f      	ldr	r1, [pc, #60]	; (8001b54 <HAL_TIM_Base_Start_IT+0x50>)
  __HAL_TIM_ENABLE_IT(htim, TIM_IT_UPDATE);
 8001b18:	f042 0201 	orr.w	r2, r2, #1
  if (IS_TIM_SLAVE_INSTANCE(htim->Instance))
 8001b1c:	428b      	cmp	r3, r1
  __HAL_TIM_ENABLE_IT(htim, TIM_IT_UPDATE);
 8001b1e:	60da      	str	r2, [r3, #12]
  if (IS_TIM_SLAVE_INSTANCE(htim->Instance))
 8001b20:	d009      	beq.n	8001b36 <HAL_TIM_Base_Start_IT+0x32>
 8001b22:	f1b3 4f80 	cmp.w	r3, #1073741824	; 0x40000000
 8001b26:	d006      	beq.n	8001b36 <HAL_TIM_Base_Start_IT+0x32>
 8001b28:	4a0b      	ldr	r2, [pc, #44]	; (8001b58 <HAL_TIM_Base_Start_IT+0x54>)
 8001b2a:	4293      	cmp	r3, r2
 8001b2c:	d003      	beq.n	8001b36 <HAL_TIM_Base_Start_IT+0x32>
 8001b2e:	f502 6280 	add.w	r2, r2, #1024	; 0x400
 8001b32:	4293      	cmp	r3, r2
 8001b34:	d104      	bne.n	8001b40 <HAL_TIM_Base_Start_IT+0x3c>
    tmpsmcr = htim->Instance->SMCR & TIM_SMCR_SMS;
 8001b36:	689a      	ldr	r2, [r3, #8]
 8001b38:	f002 0207 	and.w	r2, r2, #7
    if (!IS_TIM_SLAVEMODE_TRIGGER_ENABLED(tmpsmcr))
 8001b3c:	2a06      	cmp	r2, #6
 8001b3e:	d007      	beq.n	8001b50 <HAL_TIM_Base_Start_IT+0x4c>
    __HAL_TIM_ENABLE(htim);
 8001b40:	681a      	ldr	r2, [r3, #0]
  return HAL_OK;
 8001b42:	2000      	movs	r0, #0
    __HAL_TIM_ENABLE(htim);
 8001b44:	f042 0201 	orr.w	r2, r2, #1
 8001b48:	601a      	str	r2, [r3, #0]
 8001b4a:	4770      	bx	lr
    return HAL_ERROR;
 8001b4c:	2001      	movs	r0, #1
 8001b4e:	4770      	bx	lr
  return HAL_OK;
 8001b50:	2000      	movs	r0, #0
}
 8001b52:	4770      	bx	lr
 8001b54:	40012c00 	.word	0x40012c00
 8001b58:	40000400 	.word	0x40000400

08001b5c <HAL_TIM_ConfigClockSource>:
  __HAL_LOCK(htim);
 8001b5c:	f890 303c 	ldrb.w	r3, [r0, #60]	; 0x3c
 8001b60:	2b01      	cmp	r3, #1
 8001b62:	d074      	beq.n	8001c4e <HAL_TIM_ConfigClockSource+0xf2>
{
 8001b64:	b4f0      	push	{r4, r5, r6, r7}
  htim->State = HAL_TIM_STATE_BUSY;
 8001b66:	2302      	movs	r3, #2
  __HAL_LOCK(htim);
 8001b68:	2401      	movs	r4, #1
  tmpsmcr = htim->Instance->SMCR;
 8001b6a:	6802      	ldr	r2, [r0, #0]
  __HAL_LOCK(htim);
 8001b6c:	f880 403c 	strb.w	r4, [r0, #60]	; 0x3c
  htim->State = HAL_TIM_STATE_BUSY;
 8001b70:	f880 303d 	strb.w	r3, [r0, #61]	; 0x3d
  tmpsmcr = htim->Instance->SMCR;
 8001b74:	6894      	ldr	r4, [r2, #8]
  switch (sClockSourceConfig->ClockSource)
 8001b76:	680b      	ldr	r3, [r1, #0]
  tmpsmcr &= ~(TIM_SMCR_ETF | TIM_SMCR_ETPS | TIM_SMCR_ECE | TIM_SMCR_ETP);
 8001b78:	f424 447f 	bic.w	r4, r4, #65280	; 0xff00
 8001b7c:	f024 0477 	bic.w	r4, r4, #119	; 0x77
  switch (sClockSourceConfig->ClockSource)
 8001b80:	2b60      	cmp	r3, #96	; 0x60
  htim->Instance->SMCR = tmpsmcr;
 8001b82:	6094      	str	r4, [r2, #8]
  switch (sClockSourceConfig->ClockSource)
 8001b84:	d065      	beq.n	8001c52 <HAL_TIM_ConfigClockSource+0xf6>
 8001b86:	d831      	bhi.n	8001bec <HAL_TIM_ConfigClockSource+0x90>
 8001b88:	2b40      	cmp	r3, #64	; 0x40
 8001b8a:	d048      	beq.n	8001c1e <HAL_TIM_ConfigClockSource+0xc2>
 8001b8c:	d921      	bls.n	8001bd2 <HAL_TIM_ConfigClockSource+0x76>
 8001b8e:	2b50      	cmp	r3, #80	; 0x50
 8001b90:	d116      	bne.n	8001bc0 <HAL_TIM_ConfigClockSource+0x64>
{
  uint32_t tmpccmr1;
  uint32_t tmpccer;

  /* Disable the Channel 1: Reset the CC1E Bit */
  tmpccer = TIMx->CCER;
 8001b92:	6a15      	ldr	r5, [r2, #32]
  TIMx->CCER &= ~TIM_CCER_CC1E;
 8001b94:	6a16      	ldr	r6, [r2, #32]
      TIM_TI1_ConfigInputStage(htim->Instance,
 8001b96:	684c      	ldr	r4, [r1, #4]
  TIMx->CCER &= ~TIM_CCER_CC1E;
 8001b98:	f026 0601 	bic.w	r6, r6, #1
      TIM_TI1_ConfigInputStage(htim->Instance,
 8001b9c:	68cf      	ldr	r7, [r1, #12]
  TIMx->CCER &= ~TIM_CCER_CC1E;
 8001b9e:	6216      	str	r6, [r2, #32]
  tmpccmr1 = TIMx->CCMR1;
 8001ba0:	6993      	ldr	r3, [r2, #24]
  /* Set the filter */
  tmpccmr1 &= ~TIM_CCMR1_IC1F;
  tmpccmr1 |= (TIM_ICFilter << 4U);

  /* Select the Polarity and set the CC1E Bit */
  tmpccer &= ~(TIM_CCER_CC1P | TIM_CCER_CC1NP);
 8001ba2:	f025 010a 	bic.w	r1, r5, #10
  tmpccmr1 &= ~TIM_CCMR1_IC1F;
 8001ba6:	f023 03f0 	bic.w	r3, r3, #240	; 0xf0
  tmpccmr1 |= (TIM_ICFilter << 4U);
 8001baa:	ea43 1307 	orr.w	r3, r3, r7, lsl #4
  tmpccer |= TIM_ICPolarity;
 8001bae:	4321      	orrs	r1, r4

  /* Write to TIMx CCMR1 and CCER registers */
  TIMx->CCMR1 = tmpccmr1;
 8001bb0:	6193      	str	r3, [r2, #24]
  TIMx->CCER = tmpccer;
 8001bb2:	6211      	str	r1, [r2, #32]
static void TIM_ITRx_SetConfig(TIM_TypeDef *TIMx, uint32_t InputTriggerSource)
{
  uint32_t tmpsmcr;

  /* Get the TIMx SMCR register value */
  tmpsmcr = TIMx->SMCR;
 8001bb4:	6893      	ldr	r3, [r2, #8]
  /* Reset the TS Bits */
  tmpsmcr &= ~TIM_SMCR_TS;
 8001bb6:	f023 0370 	bic.w	r3, r3, #112	; 0x70
  /* Set the Input Trigger source and the slave mode*/
  tmpsmcr |= (InputTriggerSource | TIM_SLAVEMODE_EXTERNAL1);
 8001bba:	f043 0357 	orr.w	r3, r3, #87	; 0x57
  /* Write to TIMx SMCR */
  TIMx->SMCR = tmpsmcr;
 8001bbe:	6093      	str	r3, [r2, #8]
  __HAL_UNLOCK(htim);
 8001bc0:	2300      	movs	r3, #0
  htim->State = HAL_TIM_STATE_READY;
 8001bc2:	2201      	movs	r2, #1
  __HAL_UNLOCK(htim);
 8001bc4:	f880 303c 	strb.w	r3, [r0, #60]	; 0x3c
  htim->State = HAL_TIM_STATE_READY;
 8001bc8:	f880 203d 	strb.w	r2, [r0, #61]	; 0x3d
}
 8001bcc:	bcf0      	pop	{r4, r5, r6, r7}
  return HAL_OK;
 8001bce:	4618      	mov	r0, r3
}
 8001bd0:	4770      	bx	lr
  switch (sClockSourceConfig->ClockSource)
 8001bd2:	2b20      	cmp	r3, #32
 8001bd4:	d002      	beq.n	8001bdc <HAL_TIM_ConfigClockSource+0x80>
 8001bd6:	d91e      	bls.n	8001c16 <HAL_TIM_ConfigClockSource+0xba>
 8001bd8:	2b30      	cmp	r3, #48	; 0x30
 8001bda:	d1f1      	bne.n	8001bc0 <HAL_TIM_ConfigClockSource+0x64>
  tmpsmcr = TIMx->SMCR;
 8001bdc:	6891      	ldr	r1, [r2, #8]
  tmpsmcr &= ~TIM_SMCR_TS;
 8001bde:	f021 0170 	bic.w	r1, r1, #112	; 0x70
  tmpsmcr |= (InputTriggerSource | TIM_SLAVEMODE_EXTERNAL1);
 8001be2:	430b      	orrs	r3, r1
 8001be4:	f043 0307 	orr.w	r3, r3, #7
  TIMx->SMCR = tmpsmcr;
 8001be8:	6093      	str	r3, [r2, #8]
}
 8001bea:	e7e9      	b.n	8001bc0 <HAL_TIM_ConfigClockSource+0x64>
  switch (sClockSourceConfig->ClockSource)
 8001bec:	2b70      	cmp	r3, #112	; 0x70
 8001bee:	d049      	beq.n	8001c84 <HAL_TIM_ConfigClockSource+0x128>
 8001bf0:	f5b3 5f00 	cmp.w	r3, #8192	; 0x2000
 8001bf4:	d1e4      	bne.n	8001bc0 <HAL_TIM_ConfigClockSource+0x64>

  /* Reset the ETR Bits */
  tmpsmcr &= ~(TIM_SMCR_ETF | TIM_SMCR_ETPS | TIM_SMCR_ECE | TIM_SMCR_ETP);

  /* Set the Prescaler, the Filter value and the Polarity */
  tmpsmcr |= (uint32_t)(TIM_ExtTRGPrescaler | (TIM_ExtTRGPolarity | (ExtTRGFilter << 8U)));
 8001bf6:	e9d1 5301 	ldrd	r5, r3, [r1, #4]
 8001bfa:	68cc      	ldr	r4, [r1, #12]
  tmpsmcr = TIMx->SMCR;
 8001bfc:	6891      	ldr	r1, [r2, #8]
  tmpsmcr |= (uint32_t)(TIM_ExtTRGPrescaler | (TIM_ExtTRGPolarity | (ExtTRGFilter << 8U)));
 8001bfe:	432b      	orrs	r3, r5
 8001c00:	ea43 2304 	orr.w	r3, r3, r4, lsl #8
  tmpsmcr &= ~(TIM_SMCR_ETF | TIM_SMCR_ETPS | TIM_SMCR_ECE | TIM_SMCR_ETP);
 8001c04:	f421 417f 	bic.w	r1, r1, #65280	; 0xff00
  tmpsmcr |= (uint32_t)(TIM_ExtTRGPrescaler | (TIM_ExtTRGPolarity | (ExtTRGFilter << 8U)));
 8001c08:	430b      	orrs	r3, r1

  /* Write to TIMx SMCR */
  TIMx->SMCR = tmpsmcr;
 8001c0a:	6093      	str	r3, [r2, #8]
      htim->Instance->SMCR |= TIM_SMCR_ECE;
 8001c0c:	6893      	ldr	r3, [r2, #8]
 8001c0e:	f443 4380 	orr.w	r3, r3, #16384	; 0x4000
 8001c12:	6093      	str	r3, [r2, #8]
      break;
 8001c14:	e7d4      	b.n	8001bc0 <HAL_TIM_ConfigClockSource+0x64>
  switch (sClockSourceConfig->ClockSource)
 8001c16:	f033 0110 	bics.w	r1, r3, #16
 8001c1a:	d1d1      	bne.n	8001bc0 <HAL_TIM_ConfigClockSource+0x64>
 8001c1c:	e7de      	b.n	8001bdc <HAL_TIM_ConfigClockSource+0x80>
  tmpccer = TIMx->CCER;
 8001c1e:	6a15      	ldr	r5, [r2, #32]
  TIMx->CCER &= ~TIM_CCER_CC1E;
 8001c20:	6a16      	ldr	r6, [r2, #32]
      TIM_TI1_ConfigInputStage(htim->Instance,
 8001c22:	684c      	ldr	r4, [r1, #4]
  TIMx->CCER &= ~TIM_CCER_CC1E;
 8001c24:	f026 0601 	bic.w	r6, r6, #1
      TIM_TI1_ConfigInputStage(htim->Instance,
 8001c28:	68cf      	ldr	r7, [r1, #12]
  TIMx->CCER &= ~TIM_CCER_CC1E;
 8001c2a:	6216      	str	r6, [r2, #32]
  tmpccmr1 = TIMx->CCMR1;
 8001c2c:	6993      	ldr	r3, [r2, #24]
  tmpccer &= ~(TIM_CCER_CC1P | TIM_CCER_CC1NP);
 8001c2e:	f025 010a 	bic.w	r1, r5, #10
  tmpccmr1 &= ~TIM_CCMR1_IC1F;
 8001c32:	f023 03f0 	bic.w	r3, r3, #240	; 0xf0
  tmpccmr1 |= (TIM_ICFilter << 4U);
 8001c36:	ea43 1307 	orr.w	r3, r3, r7, lsl #4
  tmpccer |= TIM_ICPolarity;
 8001c3a:	4321      	orrs	r1, r4
  TIMx->CCMR1 = tmpccmr1;
 8001c3c:	6193      	str	r3, [r2, #24]
  TIMx->CCER = tmpccer;
 8001c3e:	6211      	str	r1, [r2, #32]
  tmpsmcr = TIMx->SMCR;
 8001c40:	6893      	ldr	r3, [r2, #8]
  tmpsmcr &= ~TIM_SMCR_TS;
 8001c42:	f023 0370 	bic.w	r3, r3, #112	; 0x70
  tmpsmcr |= (InputTriggerSource | TIM_SLAVEMODE_EXTERNAL1);
 8001c46:	f043 0347 	orr.w	r3, r3, #71	; 0x47
  TIMx->SMCR = tmpsmcr;
 8001c4a:	6093      	str	r3, [r2, #8]
}
 8001c4c:	e7b8      	b.n	8001bc0 <HAL_TIM_ConfigClockSource+0x64>
  __HAL_LOCK(htim);
 8001c4e:	2002      	movs	r0, #2
}
 8001c50:	4770      	bx	lr
  TIMx->CCER &= ~TIM_CCER_CC2E;
 8001c52:	6a14      	ldr	r4, [r2, #32]
      TIM_TI2_ConfigInputStage(htim->Instance,
 8001c54:	684d      	ldr	r5, [r1, #4]
  TIMx->CCER &= ~TIM_CCER_CC2E;
 8001c56:	f024 0410 	bic.w	r4, r4, #16
      TIM_TI2_ConfigInputStage(htim->Instance,
 8001c5a:	68ce      	ldr	r6, [r1, #12]
  TIMx->CCER &= ~TIM_CCER_CC2E;
 8001c5c:	6214      	str	r4, [r2, #32]
  tmpccmr1 = TIMx->CCMR1;
 8001c5e:	6991      	ldr	r1, [r2, #24]
  tmpccer = TIMx->CCER;
 8001c60:	6a13      	ldr	r3, [r2, #32]
  tmpccmr1 &= ~TIM_CCMR1_IC2F;
 8001c62:	f421 4170 	bic.w	r1, r1, #61440	; 0xf000
  tmpccer &= ~(TIM_CCER_CC2P | TIM_CCER_CC2NP);
 8001c66:	f023 03a0 	bic.w	r3, r3, #160	; 0xa0
  tmpccer |= (TIM_ICPolarity << 4U);
 8001c6a:	ea43 1305 	orr.w	r3, r3, r5, lsl #4
  tmpccmr1 |= (TIM_ICFilter << 12U);
 8001c6e:	ea41 3106 	orr.w	r1, r1, r6, lsl #12
  TIMx->CCMR1 = tmpccmr1 ;
 8001c72:	6191      	str	r1, [r2, #24]
  TIMx->CCER = tmpccer;
 8001c74:	6213      	str	r3, [r2, #32]
  tmpsmcr = TIMx->SMCR;
 8001c76:	6893      	ldr	r3, [r2, #8]
  tmpsmcr &= ~TIM_SMCR_TS;
 8001c78:	f023 0370 	bic.w	r3, r3, #112	; 0x70
  tmpsmcr |= (InputTriggerSource | TIM_SLAVEMODE_EXTERNAL1);
 8001c7c:	f043 0367 	orr.w	r3, r3, #103	; 0x67
  TIMx->SMCR = tmpsmcr;
 8001c80:	6093      	str	r3, [r2, #8]
}
 8001c82:	e79d      	b.n	8001bc0 <HAL_TIM_ConfigClockSource+0x64>
  tmpsmcr |= (uint32_t)(TIM_ExtTRGPrescaler | (TIM_ExtTRGPolarity | (ExtTRGFilter << 8U)));
 8001c84:	68cc      	ldr	r4, [r1, #12]
 8001c86:	e9d1 5301 	ldrd	r5, r3, [r1, #4]
  tmpsmcr = TIMx->SMCR;
 8001c8a:	6891      	ldr	r1, [r2, #8]
  tmpsmcr |= (uint32_t)(TIM_ExtTRGPrescaler | (TIM_ExtTRGPolarity | (ExtTRGFilter << 8U)));
 8001c8c:	432b      	orrs	r3, r5
 8001c8e:	ea43 2304 	orr.w	r3, r3, r4, lsl #8
  tmpsmcr &= ~(TIM_SMCR_ETF | TIM_SMCR_ETPS | TIM_SMCR_ECE | TIM_SMCR_ETP);
 8001c92:	f421 417f 	bic.w	r1, r1, #65280	; 0xff00
  tmpsmcr |= (uint32_t)(TIM_ExtTRGPrescaler | (TIM_ExtTRGPolarity | (ExtTRGFilter << 8U)));
 8001c96:	430b      	orrs	r3, r1
  TIMx->SMCR = tmpsmcr;
 8001c98:	6093      	str	r3, [r2, #8]
      tmpsmcr = htim->Instance->SMCR;
 8001c9a:	6893      	ldr	r3, [r2, #8]
      tmpsmcr |= (TIM_SLAVEMODE_EXTERNAL1 | TIM_CLOCKSOURCE_ETRMODE1);
 8001c9c:	f043 0377 	orr.w	r3, r3, #119	; 0x77
      htim->Instance->SMCR = tmpsmcr;
 8001ca0:	6093      	str	r3, [r2, #8]
      break;
 8001ca2:	e78d      	b.n	8001bc0 <HAL_TIM_ConfigClockSource+0x64>

08001ca4 <HAL_TIMEx_MasterConfigSynchronization>:
  assert_param(IS_TIM_MASTER_INSTANCE(htim->Instance));
  assert_param(IS_TIM_TRGO_SOURCE(sMasterConfig->MasterOutputTrigger));
  assert_param(IS_TIM_MSM_STATE(sMasterConfig->MasterSlaveMode));

  /* Check input state */
  __HAL_LOCK(htim);
 8001ca4:	f890 303c 	ldrb.w	r3, [r0, #60]	; 0x3c
 8001ca8:	2b01      	cmp	r3, #1
 8001caa:	d026      	beq.n	8001cfa <HAL_TIMEx_MasterConfigSynchronization+0x56>

  /* Change the handler state */
  htim->State = HAL_TIM_STATE_BUSY;
 8001cac:	2202      	movs	r2, #2

  /* Get the TIMx CR2 register value */
  tmpcr2 = htim->Instance->CR2;
 8001cae:	6803      	ldr	r3, [r0, #0]
{
 8001cb0:	b430      	push	{r4, r5}
  htim->State = HAL_TIM_STATE_BUSY;
 8001cb2:	f880 203d 	strb.w	r2, [r0, #61]	; 0x3d
  tmpcr2 = htim->Instance->CR2;
 8001cb6:	685a      	ldr	r2, [r3, #4]
  tmpsmcr = htim->Instance->SMCR;

  /* Reset the MMS Bits */
  tmpcr2 &= ~TIM_CR2_MMS;
  /* Select the TRGO source */
  tmpcr2 |=  sMasterConfig->MasterOutputTrigger;
 8001cb8:	680c      	ldr	r4, [r1, #0]

  /* Update TIMx CR2 */
  htim->Instance->CR2 = tmpcr2;

  if (IS_TIM_SLAVE_INSTANCE(htim->Instance))
 8001cba:	4d11      	ldr	r5, [pc, #68]	; (8001d00 <HAL_TIMEx_MasterConfigSynchronization+0x5c>)
  tmpcr2 &= ~TIM_CR2_MMS;
 8001cbc:	f022 0270 	bic.w	r2, r2, #112	; 0x70
  tmpcr2 |=  sMasterConfig->MasterOutputTrigger;
 8001cc0:	4322      	orrs	r2, r4
  if (IS_TIM_SLAVE_INSTANCE(htim->Instance))
 8001cc2:	42ab      	cmp	r3, r5
  tmpsmcr = htim->Instance->SMCR;
 8001cc4:	689c      	ldr	r4, [r3, #8]
  htim->Instance->CR2 = tmpcr2;
 8001cc6:	605a      	str	r2, [r3, #4]
  if (IS_TIM_SLAVE_INSTANCE(htim->Instance))
 8001cc8:	d009      	beq.n	8001cde <HAL_TIMEx_MasterConfigSynchronization+0x3a>
 8001cca:	f1b3 4f80 	cmp.w	r3, #1073741824	; 0x40000000
 8001cce:	d006      	beq.n	8001cde <HAL_TIMEx_MasterConfigSynchronization+0x3a>
 8001cd0:	4a0c      	ldr	r2, [pc, #48]	; (8001d04 <HAL_TIMEx_MasterConfigSynchronization+0x60>)
 8001cd2:	4293      	cmp	r3, r2
 8001cd4:	d003      	beq.n	8001cde <HAL_TIMEx_MasterConfigSynchronization+0x3a>
 8001cd6:	f502 6280 	add.w	r2, r2, #1024	; 0x400
 8001cda:	4293      	cmp	r3, r2
 8001cdc:	d104      	bne.n	8001ce8 <HAL_TIMEx_MasterConfigSynchronization+0x44>
  {
    /* Reset the MSM Bit */
    tmpsmcr &= ~TIM_SMCR_MSM;
    /* Set master mode */
    tmpsmcr |= sMasterConfig->MasterSlaveMode;
 8001cde:	684a      	ldr	r2, [r1, #4]
    tmpsmcr &= ~TIM_SMCR_MSM;
 8001ce0:	f024 0480 	bic.w	r4, r4, #128	; 0x80
    tmpsmcr |= sMasterConfig->MasterSlaveMode;
 8001ce4:	4314      	orrs	r4, r2

    /* Update TIMx SMCR */
    htim->Instance->SMCR = tmpsmcr;
 8001ce6:	609c      	str	r4, [r3, #8]
  }

  /* Change the htim state */
  htim->State = HAL_TIM_STATE_READY;

  __HAL_UNLOCK(htim);
 8001ce8:	2300      	movs	r3, #0
  htim->State = HAL_TIM_STATE_READY;
 8001cea:	2201      	movs	r2, #1
  __HAL_UNLOCK(htim);
 8001cec:	f880 303c 	strb.w	r3, [r0, #60]	; 0x3c
  htim->State = HAL_TIM_STATE_READY;
 8001cf0:	f880 203d 	strb.w	r2, [r0, #61]	; 0x3d

  return HAL_OK;
}
 8001cf4:	bc30      	pop	{r4, r5}
  return HAL_OK;
 8001cf6:	4618      	mov	r0, r3
}
 8001cf8:	4770      	bx	lr
  __HAL_LOCK(htim);
 8001cfa:	2002      	movs	r0, #2
}
 8001cfc:	4770      	bx	lr
 8001cfe:	bf00      	nop
 8001d00:	40012c00 	.word	0x40012c00
 8001d04:	40000400 	.word	0x40000400

08001d08 <HAL_UART_Init>:
  * @retval HAL status
  */
HAL_StatusTypeDef HAL_UART_Init(UART_HandleTypeDef *huart)
{
  /* Check the UART handle allocation */
  if (huart == NULL)
 8001d08:	2800      	cmp	r0, #0
 8001d0a:	d061      	beq.n	8001dd0 <HAL_UART_Init+0xc8>
{
 8001d0c:	b570      	push	{r4, r5, r6, lr}
  assert_param(IS_UART_WORD_LENGTH(huart->Init.WordLength));
#if defined(USART_CR1_OVER8)
  assert_param(IS_UART_OVERSAMPLING(huart->Init.OverSampling));
#endif /* USART_CR1_OVER8 */

  if (huart->gState == HAL_UART_STATE_RESET)
 8001d0e:	f890 303d 	ldrb.w	r3, [r0, #61]	; 0x3d
 8001d12:	4604      	mov	r4, r0
 8001d14:	f003 02ff 	and.w	r2, r3, #255	; 0xff
 8001d18:	2b00      	cmp	r3, #0
 8001d1a:	d051      	beq.n	8001dc0 <HAL_UART_Init+0xb8>
    /* Init the low level hardware : GPIO, CLOCK */
    HAL_UART_MspInit(huart);
#endif /* (USE_HAL_UART_REGISTER_CALLBACKS) */
  }

  huart->gState = HAL_UART_STATE_BUSY;
 8001d1c:	2224      	movs	r2, #36	; 0x24

  /* Disable the peripheral */
  __HAL_UART_DISABLE(huart);
 8001d1e:	6823      	ldr	r3, [r4, #0]
  huart->gState = HAL_UART_STATE_BUSY;
 8001d20:	f884 203d 	strb.w	r2, [r4, #61]	; 0x3d
  __HAL_UART_DISABLE(huart);
 8001d24:	68da      	ldr	r2, [r3, #12]
  assert_param(IS_UART_MODE(huart->Init.Mode));

  /*-------------------------- USART CR2 Configuration -----------------------*/
  /* Configure the UART Stop Bits: Set STOP[13:12] bits
     according to huart->Init.StopBits value */
  MODIFY_REG(huart->Instance->CR2, USART_CR2_STOP, huart->Init.StopBits);
 8001d26:	68e0      	ldr	r0, [r4, #12]
  __HAL_UART_DISABLE(huart);
 8001d28:	f422 5200 	bic.w	r2, r2, #8192	; 0x2000
 8001d2c:	60da      	str	r2, [r3, #12]
  MODIFY_REG(huart->Instance->CR2, USART_CR2_STOP, huart->Init.StopBits);
 8001d2e:	6919      	ldr	r1, [r3, #16]
  tmpreg = (uint32_t)huart->Init.WordLength | huart->Init.Parity | huart->Init.Mode | huart->Init.OverSampling;
  MODIFY_REG(huart->Instance->CR1,
             (uint32_t)(USART_CR1_M | USART_CR1_PCE | USART_CR1_PS | USART_CR1_TE | USART_CR1_RE | USART_CR1_OVER8),
             tmpreg);
#else
  tmpreg = (uint32_t)huart->Init.WordLength | huart->Init.Parity | huart->Init.Mode;
 8001d30:	68a2      	ldr	r2, [r4, #8]
  MODIFY_REG(huart->Instance->CR2, USART_CR2_STOP, huart->Init.StopBits);
 8001d32:	f421 5140 	bic.w	r1, r1, #12288	; 0x3000
 8001d36:	4301      	orrs	r1, r0
 8001d38:	6119      	str	r1, [r3, #16]
  MODIFY_REG(huart->Instance->CR1,
 8001d3a:	68d9      	ldr	r1, [r3, #12]
  tmpreg = (uint32_t)huart->Init.WordLength | huart->Init.Parity | huart->Init.Mode;
 8001d3c:	e9d4 5004 	ldrd	r5, r0, [r4, #16]
  MODIFY_REG(huart->Instance->CR1,
 8001d40:	f421 51b0 	bic.w	r1, r1, #5632	; 0x1600
  tmpreg = (uint32_t)huart->Init.WordLength | huart->Init.Parity | huart->Init.Mode;
 8001d44:	432a      	orrs	r2, r5
  MODIFY_REG(huart->Instance->CR1,
 8001d46:	f021 010c 	bic.w	r1, r1, #12
  tmpreg = (uint32_t)huart->Init.WordLength | huart->Init.Parity | huart->Init.Mode;
 8001d4a:	4302      	orrs	r2, r0
  MODIFY_REG(huart->Instance->CR1,
 8001d4c:	430a      	orrs	r2, r1
 8001d4e:	60da      	str	r2, [r3, #12]
             tmpreg);
#endif /* USART_CR1_OVER8 */

  /*-------------------------- USART CR3 Configuration -----------------------*/
  /* Configure the UART HFC: Set CTSE and RTSE bits according to huart->Init.HwFlowCtl value */
  MODIFY_REG(huart->Instance->CR3, (USART_CR3_RTSE | USART_CR3_CTSE), huart->Init.HwFlowCtl);
 8001d50:	695a      	ldr	r2, [r3, #20]
 8001d52:	69a0      	ldr	r0, [r4, #24]


  if(huart->Instance == USART1)
 8001d54:	491f      	ldr	r1, [pc, #124]	; (8001dd4 <HAL_UART_Init+0xcc>)
  MODIFY_REG(huart->Instance->CR3, (USART_CR3_RTSE | USART_CR3_CTSE), huart->Init.HwFlowCtl);
 8001d56:	f422 7240 	bic.w	r2, r2, #768	; 0x300
 8001d5a:	4302      	orrs	r2, r0
  if(huart->Instance == USART1)
 8001d5c:	428b      	cmp	r3, r1
  MODIFY_REG(huart->Instance->CR3, (USART_CR3_RTSE | USART_CR3_CTSE), huart->Init.HwFlowCtl);
 8001d5e:	615a      	str	r2, [r3, #20]
  if(huart->Instance == USART1)
 8001d60:	d033      	beq.n	8001dca <HAL_UART_Init+0xc2>
  {
    pclk = HAL_RCC_GetPCLK2Freq();
  }
  else
  {
    pclk = HAL_RCC_GetPCLK1Freq();
 8001d62:	f7ff fdf1 	bl	8001948 <HAL_RCC_GetPCLK1Freq>
  else
  {
    huart->Instance->BRR = UART_BRR_SAMPLING16(pclk, huart->Init.BaudRate);
  }
#else
  huart->Instance->BRR = UART_BRR_SAMPLING16(pclk, huart->Init.BaudRate);
 8001d66:	6863      	ldr	r3, [r4, #4]
 8001d68:	eb00 0080 	add.w	r0, r0, r0, lsl #2
 8001d6c:	eb00 0080 	add.w	r0, r0, r0, lsl #2
 8001d70:	009b      	lsls	r3, r3, #2
 8001d72:	fbb0 f3f3 	udiv	r3, r0, r3
 8001d76:	2264      	movs	r2, #100	; 0x64
  huart->ErrorCode = HAL_UART_ERROR_NONE;
 8001d78:	2600      	movs	r6, #0
  huart->gState = HAL_UART_STATE_READY;
 8001d7a:	2520      	movs	r5, #32
  huart->Instance->BRR = UART_BRR_SAMPLING16(pclk, huart->Init.BaudRate);
 8001d7c:	4816      	ldr	r0, [pc, #88]	; (8001dd8 <HAL_UART_Init+0xd0>)
 8001d7e:	fba0 c103 	umull	ip, r1, r0, r3
 8001d82:	0949      	lsrs	r1, r1, #5
 8001d84:	fb02 3311 	mls	r3, r2, r1, r3
 8001d88:	011b      	lsls	r3, r3, #4
 8001d8a:	3332      	adds	r3, #50	; 0x32
 8001d8c:	fba0 2303 	umull	r2, r3, r0, r3
 8001d90:	0109      	lsls	r1, r1, #4
 8001d92:	6822      	ldr	r2, [r4, #0]
 8001d94:	eb01 1353 	add.w	r3, r1, r3, lsr #5
 8001d98:	6093      	str	r3, [r2, #8]
  CLEAR_BIT(huart->Instance->CR2, (USART_CR2_LINEN | USART_CR2_CLKEN));
 8001d9a:	6913      	ldr	r3, [r2, #16]
  return HAL_OK;
 8001d9c:	4630      	mov	r0, r6
  CLEAR_BIT(huart->Instance->CR2, (USART_CR2_LINEN | USART_CR2_CLKEN));
 8001d9e:	f423 4390 	bic.w	r3, r3, #18432	; 0x4800
 8001da2:	6113      	str	r3, [r2, #16]
  CLEAR_BIT(huart->Instance->CR3, (USART_CR3_SCEN | USART_CR3_HDSEL | USART_CR3_IREN));
 8001da4:	6953      	ldr	r3, [r2, #20]
 8001da6:	f023 032a 	bic.w	r3, r3, #42	; 0x2a
 8001daa:	6153      	str	r3, [r2, #20]
  __HAL_UART_ENABLE(huart);
 8001dac:	68d3      	ldr	r3, [r2, #12]
 8001dae:	f443 5300 	orr.w	r3, r3, #8192	; 0x2000
 8001db2:	60d3      	str	r3, [r2, #12]
  huart->ErrorCode = HAL_UART_ERROR_NONE;
 8001db4:	6426      	str	r6, [r4, #64]	; 0x40
  huart->gState = HAL_UART_STATE_READY;
 8001db6:	f884 503d 	strb.w	r5, [r4, #61]	; 0x3d
  huart->RxState = HAL_UART_STATE_READY;
 8001dba:	f884 503e 	strb.w	r5, [r4, #62]	; 0x3e
}
 8001dbe:	bd70      	pop	{r4, r5, r6, pc}
    huart->Lock = HAL_UNLOCKED;
 8001dc0:	f880 203c 	strb.w	r2, [r0, #60]	; 0x3c
    HAL_UART_MspInit(huart);
 8001dc4:	f7fe fbc6 	bl	8000554 <HAL_UART_MspInit>
 8001dc8:	e7a8      	b.n	8001d1c <HAL_UART_Init+0x14>
    pclk = HAL_RCC_GetPCLK2Freq();
 8001dca:	f7ff fdcd 	bl	8001968 <HAL_RCC_GetPCLK2Freq>
 8001dce:	e7ca      	b.n	8001d66 <HAL_UART_Init+0x5e>
    return HAL_ERROR;
 8001dd0:	2001      	movs	r0, #1
}
 8001dd2:	4770      	bx	lr
 8001dd4:	40013800 	.word	0x40013800
 8001dd8:	51eb851f 	.word	0x51eb851f

08001ddc <HAL_UART_Receive_IT>:
  if (huart->RxState == HAL_UART_STATE_READY)
 8001ddc:	f890 303e 	ldrb.w	r3, [r0, #62]	; 0x3e
 8001de0:	2b20      	cmp	r3, #32
 8001de2:	d123      	bne.n	8001e2c <HAL_UART_Receive_IT+0x50>
    if ((pData == NULL) || (Size == 0U))
 8001de4:	b301      	cbz	r1, 8001e28 <HAL_UART_Receive_IT+0x4c>
 8001de6:	b1fa      	cbz	r2, 8001e28 <HAL_UART_Receive_IT+0x4c>
    __HAL_LOCK(huart);
 8001de8:	f890 303c 	ldrb.w	r3, [r0, #60]	; 0x3c
 8001dec:	2b01      	cmp	r3, #1
 8001dee:	d01d      	beq.n	8001e2c <HAL_UART_Receive_IT+0x50>
{
 8001df0:	b430      	push	{r4, r5}
    huart->ReceptionType = HAL_UART_RECEPTION_STANDARD;
 8001df2:	2300      	movs	r3, #0
  huart->RxState = HAL_UART_STATE_BUSY_RX;
 8001df4:	2522      	movs	r5, #34	; 0x22
  __HAL_UART_ENABLE_IT(huart, UART_IT_PE);
 8001df6:	6804      	ldr	r4, [r0, #0]
    huart->ReceptionType = HAL_UART_RECEPTION_STANDARD;
 8001df8:	6303      	str	r3, [r0, #48]	; 0x30
  __HAL_UNLOCK(huart);
 8001dfa:	f880 303c 	strb.w	r3, [r0, #60]	; 0x3c
  huart->RxXferCount = Size;
 8001dfe:	85c2      	strh	r2, [r0, #46]	; 0x2e
  huart->ErrorCode = HAL_UART_ERROR_NONE;
 8001e00:	6403      	str	r3, [r0, #64]	; 0x40
  huart->RxState = HAL_UART_STATE_BUSY_RX;
 8001e02:	f880 503e 	strb.w	r5, [r0, #62]	; 0x3e
  __HAL_UART_ENABLE_IT(huart, UART_IT_PE);
 8001e06:	68e5      	ldr	r5, [r4, #12]
  huart->RxXferSize = Size;
 8001e08:	8582      	strh	r2, [r0, #44]	; 0x2c
  __HAL_UART_ENABLE_IT(huart, UART_IT_PE);
 8001e0a:	f445 7580 	orr.w	r5, r5, #256	; 0x100
  huart->pRxBuffPtr = pData;
 8001e0e:	6281      	str	r1, [r0, #40]	; 0x28
  __HAL_UART_ENABLE_IT(huart, UART_IT_PE);
 8001e10:	60e5      	str	r5, [r4, #12]
  __HAL_UART_ENABLE_IT(huart, UART_IT_ERR);
 8001e12:	6962      	ldr	r2, [r4, #20]
    return(UART_Start_Receive_IT(huart, pData, Size));
 8001e14:	4618      	mov	r0, r3
  __HAL_UART_ENABLE_IT(huart, UART_IT_ERR);
 8001e16:	f042 0201 	orr.w	r2, r2, #1
 8001e1a:	6162      	str	r2, [r4, #20]
  __HAL_UART_ENABLE_IT(huart, UART_IT_RXNE);
 8001e1c:	68e3      	ldr	r3, [r4, #12]
 8001e1e:	f043 0320 	orr.w	r3, r3, #32
 8001e22:	60e3      	str	r3, [r4, #12]
}
 8001e24:	bc30      	pop	{r4, r5}
 8001e26:	4770      	bx	lr
      return HAL_ERROR;
 8001e28:	2001      	movs	r0, #1
 8001e2a:	4770      	bx	lr
    return HAL_BUSY;
 8001e2c:	2002      	movs	r0, #2
}
 8001e2e:	4770      	bx	lr

08001e30 <HAL_UART_TxCpltCallback>:
 8001e30:	4770      	bx	lr
 8001e32:	bf00      	nop

08001e34 <HAL_UART_ErrorCallback>:
 8001e34:	4770      	bx	lr
 8001e36:	bf00      	nop

08001e38 <UART_DMAAbortOnError>:
{
 8001e38:	b508      	push	{r3, lr}
  huart->RxXferCount = 0x00U;
 8001e3a:	2300      	movs	r3, #0
  UART_HandleTypeDef *huart = (UART_HandleTypeDef *)((DMA_HandleTypeDef *)hdma)->Parent;
 8001e3c:	6a40      	ldr	r0, [r0, #36]	; 0x24
  huart->RxXferCount = 0x00U;
 8001e3e:	85c3      	strh	r3, [r0, #46]	; 0x2e
  huart->TxXferCount = 0x00U;
 8001e40:	84c3      	strh	r3, [r0, #38]	; 0x26
  HAL_UART_ErrorCallback(huart);
 8001e42:	f7ff fff7 	bl	8001e34 <HAL_UART_ErrorCallback>
}
 8001e46:	bd08      	pop	{r3, pc}

08001e48 <HAL_UARTEx_RxEventCallback>:
}
 8001e48:	4770      	bx	lr
 8001e4a:	bf00      	nop

08001e4c <UART_Receive_IT.part.0>:
    if ((huart->Init.WordLength == UART_WORDLENGTH_9B) && (huart->Init.Parity == UART_PARITY_NONE))
 8001e4c:	6883      	ldr	r3, [r0, #8]
 8001e4e:	f5b3 5f80 	cmp.w	r3, #4096	; 0x1000
 8001e52:	d03b      	beq.n	8001ecc <UART_Receive_IT.part.0+0x80>
      pdata8bits = (uint8_t *) huart->pRxBuffPtr;
 8001e54:	6a82      	ldr	r2, [r0, #40]	; 0x28
      if ((huart->Init.WordLength == UART_WORDLENGTH_9B) || ((huart->Init.WordLength == UART_WORDLENGTH_8B) && (huart->Init.Parity == UART_PARITY_NONE)))
 8001e56:	2b00      	cmp	r3, #0
 8001e58:	d02f      	beq.n	8001eba <UART_Receive_IT.part.0+0x6e>
        *pdata8bits = (uint8_t)(huart->Instance->DR & (uint8_t)0x007F);
 8001e5a:	6803      	ldr	r3, [r0, #0]
 8001e5c:	685b      	ldr	r3, [r3, #4]
 8001e5e:	f003 037f 	and.w	r3, r3, #127	; 0x7f
 8001e62:	7013      	strb	r3, [r2, #0]
      huart->pRxBuffPtr += 1U;
 8001e64:	6a83      	ldr	r3, [r0, #40]	; 0x28
 8001e66:	3301      	adds	r3, #1
 8001e68:	6283      	str	r3, [r0, #40]	; 0x28
    if (--huart->RxXferCount == 0U)
 8001e6a:	8dc3      	ldrh	r3, [r0, #46]	; 0x2e
 8001e6c:	3b01      	subs	r3, #1
 8001e6e:	b29b      	uxth	r3, r3
 8001e70:	85c3      	strh	r3, [r0, #46]	; 0x2e
 8001e72:	bb4b      	cbnz	r3, 8001ec8 <UART_Receive_IT.part.0+0x7c>
static HAL_StatusTypeDef UART_Receive_IT(UART_HandleTypeDef *huart)
 8001e74:	b510      	push	{r4, lr}
      huart->RxState = HAL_UART_STATE_READY;
 8001e76:	2420      	movs	r4, #32
      __HAL_UART_DISABLE_IT(huart, UART_IT_RXNE);
 8001e78:	6802      	ldr	r2, [r0, #0]
static HAL_StatusTypeDef UART_Receive_IT(UART_HandleTypeDef *huart)
 8001e7a:	b082      	sub	sp, #8
      __HAL_UART_DISABLE_IT(huart, UART_IT_RXNE);
 8001e7c:	68d1      	ldr	r1, [r2, #12]
 8001e7e:	f021 0120 	bic.w	r1, r1, #32
 8001e82:	60d1      	str	r1, [r2, #12]
      __HAL_UART_DISABLE_IT(huart, UART_IT_PE);
 8001e84:	68d1      	ldr	r1, [r2, #12]
 8001e86:	f421 7180 	bic.w	r1, r1, #256	; 0x100
 8001e8a:	60d1      	str	r1, [r2, #12]
      __HAL_UART_DISABLE_IT(huart, UART_IT_ERR);
 8001e8c:	6951      	ldr	r1, [r2, #20]
 8001e8e:	f021 0101 	bic.w	r1, r1, #1
 8001e92:	6151      	str	r1, [r2, #20]
      huart->RxState = HAL_UART_STATE_READY;
 8001e94:	f880 403e 	strb.w	r4, [r0, #62]	; 0x3e
      if (huart->ReceptionType == HAL_UART_RECEPTION_TOIDLE)
 8001e98:	6b01      	ldr	r1, [r0, #48]	; 0x30
 8001e9a:	2901      	cmp	r1, #1
 8001e9c:	d121      	bne.n	8001ee2 <UART_Receive_IT.part.0+0x96>
        huart->ReceptionType = HAL_UART_RECEPTION_STANDARD;
 8001e9e:	6303      	str	r3, [r0, #48]	; 0x30
        CLEAR_BIT(huart->Instance->CR1, USART_CR1_IDLEIE);
 8001ea0:	68d1      	ldr	r1, [r2, #12]
 8001ea2:	f021 0110 	bic.w	r1, r1, #16
 8001ea6:	60d1      	str	r1, [r2, #12]
        if (__HAL_UART_GET_FLAG(huart, UART_FLAG_IDLE))
 8001ea8:	6811      	ldr	r1, [r2, #0]
 8001eaa:	06c9      	lsls	r1, r1, #27
 8001eac:	d423      	bmi.n	8001ef6 <UART_Receive_IT.part.0+0xaa>
        HAL_UARTEx_RxEventCallback(huart, huart->RxXferSize);
 8001eae:	8d81      	ldrh	r1, [r0, #44]	; 0x2c
 8001eb0:	f7ff ffca 	bl	8001e48 <HAL_UARTEx_RxEventCallback>
}
 8001eb4:	2000      	movs	r0, #0
 8001eb6:	b002      	add	sp, #8
 8001eb8:	bd10      	pop	{r4, pc}
      if ((huart->Init.WordLength == UART_WORDLENGTH_9B) || ((huart->Init.WordLength == UART_WORDLENGTH_8B) && (huart->Init.Parity == UART_PARITY_NONE)))
 8001eba:	6903      	ldr	r3, [r0, #16]
 8001ebc:	2b00      	cmp	r3, #0
 8001ebe:	d1cc      	bne.n	8001e5a <UART_Receive_IT.part.0+0xe>
        *pdata8bits = (uint8_t)(huart->Instance->DR & (uint8_t)0x00FF);
 8001ec0:	6803      	ldr	r3, [r0, #0]
 8001ec2:	685b      	ldr	r3, [r3, #4]
 8001ec4:	7013      	strb	r3, [r2, #0]
 8001ec6:	e7cd      	b.n	8001e64 <UART_Receive_IT.part.0+0x18>
}
 8001ec8:	2000      	movs	r0, #0
 8001eca:	4770      	bx	lr
    if ((huart->Init.WordLength == UART_WORDLENGTH_9B) && (huart->Init.Parity == UART_PARITY_NONE))
 8001ecc:	6903      	ldr	r3, [r0, #16]
 8001ece:	b96b      	cbnz	r3, 8001eec <UART_Receive_IT.part.0+0xa0>
      *pdata16bits = (uint16_t)(huart->Instance->DR & (uint16_t)0x01FF);
 8001ed0:	6802      	ldr	r2, [r0, #0]
 8001ed2:	6a83      	ldr	r3, [r0, #40]	; 0x28
 8001ed4:	6852      	ldr	r2, [r2, #4]
 8001ed6:	f3c2 0208 	ubfx	r2, r2, #0, #9
 8001eda:	f823 2b02 	strh.w	r2, [r3], #2
      huart->pRxBuffPtr += 2U;
 8001ede:	6283      	str	r3, [r0, #40]	; 0x28
 8001ee0:	e7c3      	b.n	8001e6a <UART_Receive_IT.part.0+0x1e>
       HAL_UART_RxCpltCallback(huart);
 8001ee2:	f7fe fa45 	bl	8000370 <HAL_UART_RxCpltCallback>
}
 8001ee6:	2000      	movs	r0, #0
 8001ee8:	b002      	add	sp, #8
 8001eea:	bd10      	pop	{r4, pc}
        *pdata8bits = (uint8_t)(huart->Instance->DR & (uint8_t)0x00FF);
 8001eec:	6803      	ldr	r3, [r0, #0]
      pdata8bits = (uint8_t *) huart->pRxBuffPtr;
 8001eee:	6a82      	ldr	r2, [r0, #40]	; 0x28
        *pdata8bits = (uint8_t)(huart->Instance->DR & (uint8_t)0x00FF);
 8001ef0:	685b      	ldr	r3, [r3, #4]
 8001ef2:	7013      	strb	r3, [r2, #0]
 8001ef4:	e7b6      	b.n	8001e64 <UART_Receive_IT.part.0+0x18>
          __HAL_UART_CLEAR_IDLEFLAG(huart);
 8001ef6:	9301      	str	r3, [sp, #4]
 8001ef8:	6813      	ldr	r3, [r2, #0]
 8001efa:	9301      	str	r3, [sp, #4]
 8001efc:	6853      	ldr	r3, [r2, #4]
 8001efe:	9301      	str	r3, [sp, #4]
 8001f00:	9b01      	ldr	r3, [sp, #4]
 8001f02:	e7d4      	b.n	8001eae <UART_Receive_IT.part.0+0x62>

08001f04 <HAL_UART_IRQHandler>:
{
 8001f04:	b570      	push	{r4, r5, r6, lr}
  uint32_t isrflags   = READ_REG(huart->Instance->SR);
 8001f06:	6803      	ldr	r3, [r0, #0]
{
 8001f08:	4604      	mov	r4, r0
  uint32_t isrflags   = READ_REG(huart->Instance->SR);
 8001f0a:	681a      	ldr	r2, [r3, #0]
{
 8001f0c:	b082      	sub	sp, #8
  if (errorflags == RESET)
 8001f0e:	0716      	lsls	r6, r2, #28
  uint32_t cr1its     = READ_REG(huart->Instance->CR1);
 8001f10:	68d9      	ldr	r1, [r3, #12]
  uint32_t cr3its     = READ_REG(huart->Instance->CR3);
 8001f12:	695d      	ldr	r5, [r3, #20]
  if (errorflags == RESET)
 8001f14:	d14e      	bne.n	8001fb4 <HAL_UART_IRQHandler+0xb0>
    if (((isrflags & USART_SR_RXNE) != RESET) && ((cr1its & USART_CR1_RXNEIE) != RESET))
 8001f16:	0696      	lsls	r6, r2, #26
 8001f18:	d502      	bpl.n	8001f20 <HAL_UART_IRQHandler+0x1c>
 8001f1a:	068d      	lsls	r5, r1, #26
 8001f1c:	f100 8090 	bmi.w	8002040 <HAL_UART_IRQHandler+0x13c>
  if (  (huart->ReceptionType == HAL_UART_RECEPTION_TOIDLE)
 8001f20:	6b20      	ldr	r0, [r4, #48]	; 0x30
 8001f22:	2801      	cmp	r0, #1
 8001f24:	d00b      	beq.n	8001f3e <HAL_UART_IRQHandler+0x3a>
  if (((isrflags & USART_SR_TXE) != RESET) && ((cr1its & USART_CR1_TXEIE) != RESET))
 8001f26:	0616      	lsls	r6, r2, #24
 8001f28:	d502      	bpl.n	8001f30 <HAL_UART_IRQHandler+0x2c>
 8001f2a:	060d      	lsls	r5, r1, #24
 8001f2c:	f100 8092 	bmi.w	8002054 <HAL_UART_IRQHandler+0x150>
  if (((isrflags & USART_SR_TC) != RESET) && ((cr1its & USART_CR1_TCIE) != RESET))
 8001f30:	0650      	lsls	r0, r2, #25
 8001f32:	d502      	bpl.n	8001f3a <HAL_UART_IRQHandler+0x36>
 8001f34:	064a      	lsls	r2, r1, #25
 8001f36:	f100 80ab 	bmi.w	8002090 <HAL_UART_IRQHandler+0x18c>
}
 8001f3a:	b002      	add	sp, #8
 8001f3c:	bd70      	pop	{r4, r5, r6, pc}
      &&((isrflags & USART_SR_IDLE) != 0U)
 8001f3e:	06d5      	lsls	r5, r2, #27
 8001f40:	d5f1      	bpl.n	8001f26 <HAL_UART_IRQHandler+0x22>
      &&((cr1its & USART_SR_IDLE) != 0U))
 8001f42:	06c8      	lsls	r0, r1, #27
 8001f44:	d5ef      	bpl.n	8001f26 <HAL_UART_IRQHandler+0x22>
    __HAL_UART_CLEAR_IDLEFLAG(huart);
 8001f46:	2100      	movs	r1, #0
 8001f48:	9101      	str	r1, [sp, #4]
 8001f4a:	681a      	ldr	r2, [r3, #0]
 8001f4c:	9201      	str	r2, [sp, #4]
 8001f4e:	685a      	ldr	r2, [r3, #4]
 8001f50:	9201      	str	r2, [sp, #4]
 8001f52:	9a01      	ldr	r2, [sp, #4]
    if (HAL_IS_BIT_SET(huart->Instance->CR3, USART_CR3_DMAR))
 8001f54:	695a      	ldr	r2, [r3, #20]
 8001f56:	f012 0240 	ands.w	r2, r2, #64	; 0x40
 8001f5a:	f000 80d2 	beq.w	8002102 <HAL_UART_IRQHandler+0x1fe>
      uint16_t nb_remaining_rx_data = (uint16_t) __HAL_DMA_GET_COUNTER(huart->hdmarx);
 8001f5e:	6ba0      	ldr	r0, [r4, #56]	; 0x38
 8001f60:	6802      	ldr	r2, [r0, #0]
 8001f62:	6852      	ldr	r2, [r2, #4]
 8001f64:	b292      	uxth	r2, r2
      if (  (nb_remaining_rx_data > 0U)
 8001f66:	2a00      	cmp	r2, #0
 8001f68:	d0e7      	beq.n	8001f3a <HAL_UART_IRQHandler+0x36>
          &&(nb_remaining_rx_data < huart->RxXferSize))
 8001f6a:	8da5      	ldrh	r5, [r4, #44]	; 0x2c
 8001f6c:	4295      	cmp	r5, r2
 8001f6e:	d9e4      	bls.n	8001f3a <HAL_UART_IRQHandler+0x36>
        if (huart->hdmarx->Init.Mode != DMA_CIRCULAR)
 8001f70:	6986      	ldr	r6, [r0, #24]
        huart->RxXferCount = nb_remaining_rx_data;
 8001f72:	85e2      	strh	r2, [r4, #46]	; 0x2e
        if (huart->hdmarx->Init.Mode != DMA_CIRCULAR)
 8001f74:	2e20      	cmp	r6, #32
 8001f76:	d016      	beq.n	8001fa6 <HAL_UART_IRQHandler+0xa2>
          huart->RxState = HAL_UART_STATE_READY;
 8001f78:	2520      	movs	r5, #32
          CLEAR_BIT(huart->Instance->CR1, USART_CR1_PEIE);
 8001f7a:	68da      	ldr	r2, [r3, #12]
 8001f7c:	f422 7280 	bic.w	r2, r2, #256	; 0x100
 8001f80:	60da      	str	r2, [r3, #12]
          CLEAR_BIT(huart->Instance->CR3, USART_CR3_EIE);
 8001f82:	695a      	ldr	r2, [r3, #20]
 8001f84:	f022 0201 	bic.w	r2, r2, #1
 8001f88:	615a      	str	r2, [r3, #20]
          CLEAR_BIT(huart->Instance->CR3, USART_CR3_DMAR);
 8001f8a:	695a      	ldr	r2, [r3, #20]
 8001f8c:	f022 0240 	bic.w	r2, r2, #64	; 0x40
 8001f90:	615a      	str	r2, [r3, #20]
          huart->RxState = HAL_UART_STATE_READY;
 8001f92:	f884 503e 	strb.w	r5, [r4, #62]	; 0x3e
          huart->ReceptionType = HAL_UART_RECEPTION_STANDARD;
 8001f96:	6321      	str	r1, [r4, #48]	; 0x30
          CLEAR_BIT(huart->Instance->CR1, USART_CR1_IDLEIE);
 8001f98:	68da      	ldr	r2, [r3, #12]
 8001f9a:	f022 0210 	bic.w	r2, r2, #16
 8001f9e:	60da      	str	r2, [r3, #12]
          (void)HAL_DMA_Abort(huart->hdmarx);
 8001fa0:	f7ff f87e 	bl	80010a0 <HAL_DMA_Abort>
 8001fa4:	8da5      	ldrh	r5, [r4, #44]	; 0x2c
        HAL_UARTEx_RxEventCallback(huart, (huart->RxXferSize - huart->RxXferCount));
 8001fa6:	8de1      	ldrh	r1, [r4, #46]	; 0x2e
 8001fa8:	4620      	mov	r0, r4
 8001faa:	1a69      	subs	r1, r5, r1
 8001fac:	b289      	uxth	r1, r1
 8001fae:	f7ff ff4b 	bl	8001e48 <HAL_UARTEx_RxEventCallback>
 8001fb2:	e7c2      	b.n	8001f3a <HAL_UART_IRQHandler+0x36>
  if ((errorflags != RESET) && (((cr3its & USART_CR3_EIE) != RESET) || ((cr1its & (USART_CR1_RXNEIE | USART_CR1_PEIE)) != RESET)))
 8001fb4:	f005 0501 	and.w	r5, r5, #1
 8001fb8:	f401 7090 	and.w	r0, r1, #288	; 0x120
 8001fbc:	4328      	orrs	r0, r5
 8001fbe:	d0af      	beq.n	8001f20 <HAL_UART_IRQHandler+0x1c>
    if (((isrflags & USART_SR_PE) != RESET) && ((cr1its & USART_CR1_PEIE) != RESET))
 8001fc0:	07d0      	lsls	r0, r2, #31
 8001fc2:	d505      	bpl.n	8001fd0 <HAL_UART_IRQHandler+0xcc>
 8001fc4:	05ce      	lsls	r6, r1, #23
 8001fc6:	d503      	bpl.n	8001fd0 <HAL_UART_IRQHandler+0xcc>
      huart->ErrorCode |= HAL_UART_ERROR_PE;
 8001fc8:	6c20      	ldr	r0, [r4, #64]	; 0x40
 8001fca:	f040 0001 	orr.w	r0, r0, #1
 8001fce:	6420      	str	r0, [r4, #64]	; 0x40
    if (((isrflags & USART_SR_NE) != RESET) && ((cr3its & USART_CR3_EIE) != RESET))
 8001fd0:	0750      	lsls	r0, r2, #29
 8001fd2:	d52c      	bpl.n	800202e <HAL_UART_IRQHandler+0x12a>
 8001fd4:	b12d      	cbz	r5, 8001fe2 <HAL_UART_IRQHandler+0xde>
      huart->ErrorCode |= HAL_UART_ERROR_NE;
 8001fd6:	6c20      	ldr	r0, [r4, #64]	; 0x40
    if (((isrflags & USART_SR_FE) != RESET) && ((cr3its & USART_CR3_EIE) != RESET))
 8001fd8:	0796      	lsls	r6, r2, #30
      huart->ErrorCode |= HAL_UART_ERROR_NE;
 8001fda:	f040 0002 	orr.w	r0, r0, #2
 8001fde:	6420      	str	r0, [r4, #64]	; 0x40
    if (((isrflags & USART_SR_FE) != RESET) && ((cr3its & USART_CR3_EIE) != RESET))
 8001fe0:	d429      	bmi.n	8002036 <HAL_UART_IRQHandler+0x132>
    if (((isrflags & USART_SR_ORE) != RESET) && (((cr1its & USART_CR1_RXNEIE) != RESET) || ((cr3its & USART_CR3_EIE) != RESET)))
 8001fe2:	0716      	lsls	r6, r2, #28
 8001fe4:	d507      	bpl.n	8001ff6 <HAL_UART_IRQHandler+0xf2>
 8001fe6:	f001 0020 	and.w	r0, r1, #32
 8001fea:	4328      	orrs	r0, r5
 8001fec:	d003      	beq.n	8001ff6 <HAL_UART_IRQHandler+0xf2>
      huart->ErrorCode |= HAL_UART_ERROR_ORE;
 8001fee:	6c20      	ldr	r0, [r4, #64]	; 0x40
 8001ff0:	f040 0008 	orr.w	r0, r0, #8
 8001ff4:	6420      	str	r0, [r4, #64]	; 0x40
    if (huart->ErrorCode != HAL_UART_ERROR_NONE)
 8001ff6:	6c20      	ldr	r0, [r4, #64]	; 0x40
 8001ff8:	2800      	cmp	r0, #0
 8001ffa:	d09e      	beq.n	8001f3a <HAL_UART_IRQHandler+0x36>
      if (((isrflags & USART_SR_RXNE) != RESET) && ((cr1its & USART_CR1_RXNEIE) != RESET))
 8001ffc:	0690      	lsls	r0, r2, #26
 8001ffe:	d509      	bpl.n	8002014 <HAL_UART_IRQHandler+0x110>
 8002000:	068a      	lsls	r2, r1, #26
 8002002:	d507      	bpl.n	8002014 <HAL_UART_IRQHandler+0x110>
  if (huart->RxState == HAL_UART_STATE_BUSY_RX)
 8002004:	f894 203e 	ldrb.w	r2, [r4, #62]	; 0x3e
 8002008:	2a22      	cmp	r2, #34	; 0x22
 800200a:	d103      	bne.n	8002014 <HAL_UART_IRQHandler+0x110>
 800200c:	4620      	mov	r0, r4
 800200e:	f7ff ff1d 	bl	8001e4c <UART_Receive_IT.part.0>
 8002012:	6823      	ldr	r3, [r4, #0]
      dmarequest = HAL_IS_BIT_SET(huart->Instance->CR3, USART_CR3_DMAR);
 8002014:	695a      	ldr	r2, [r3, #20]
      if (((huart->ErrorCode & HAL_UART_ERROR_ORE) != RESET) || dmarequest)
 8002016:	6c25      	ldr	r5, [r4, #64]	; 0x40
      dmarequest = HAL_IS_BIT_SET(huart->Instance->CR3, USART_CR3_DMAR);
 8002018:	f002 0240 	and.w	r2, r2, #64	; 0x40
      if (((huart->ErrorCode & HAL_UART_ERROR_ORE) != RESET) || dmarequest)
 800201c:	f005 0508 	and.w	r5, r5, #8
 8002020:	4315      	orrs	r5, r2
 8002022:	d140      	bne.n	80020a6 <HAL_UART_IRQHandler+0x1a2>
        HAL_UART_ErrorCallback(huart);
 8002024:	4620      	mov	r0, r4
 8002026:	f7ff ff05 	bl	8001e34 <HAL_UART_ErrorCallback>
        huart->ErrorCode = HAL_UART_ERROR_NONE;
 800202a:	6425      	str	r5, [r4, #64]	; 0x40
 800202c:	e785      	b.n	8001f3a <HAL_UART_IRQHandler+0x36>
    if (((isrflags & USART_SR_FE) != RESET) && ((cr3its & USART_CR3_EIE) != RESET))
 800202e:	0790      	lsls	r0, r2, #30
 8002030:	d5d7      	bpl.n	8001fe2 <HAL_UART_IRQHandler+0xde>
 8002032:	2d00      	cmp	r5, #0
 8002034:	d0d5      	beq.n	8001fe2 <HAL_UART_IRQHandler+0xde>
      huart->ErrorCode |= HAL_UART_ERROR_FE;
 8002036:	6c20      	ldr	r0, [r4, #64]	; 0x40
 8002038:	f040 0004 	orr.w	r0, r0, #4
 800203c:	6420      	str	r0, [r4, #64]	; 0x40
 800203e:	e7d0      	b.n	8001fe2 <HAL_UART_IRQHandler+0xde>
  if (huart->RxState == HAL_UART_STATE_BUSY_RX)
 8002040:	f890 303e 	ldrb.w	r3, [r0, #62]	; 0x3e
 8002044:	2b22      	cmp	r3, #34	; 0x22
 8002046:	f47f af78 	bne.w	8001f3a <HAL_UART_IRQHandler+0x36>
}
 800204a:	b002      	add	sp, #8
 800204c:	e8bd 4070 	ldmia.w	sp!, {r4, r5, r6, lr}
 8002050:	f7ff befc 	b.w	8001e4c <UART_Receive_IT.part.0>
  if (huart->gState == HAL_UART_STATE_BUSY_TX)
 8002054:	f894 203d 	ldrb.w	r2, [r4, #61]	; 0x3d
 8002058:	2a21      	cmp	r2, #33	; 0x21
 800205a:	f47f af6e 	bne.w	8001f3a <HAL_UART_IRQHandler+0x36>
    if ((huart->Init.WordLength == UART_WORDLENGTH_9B) && (huart->Init.Parity == UART_PARITY_NONE))
 800205e:	68a2      	ldr	r2, [r4, #8]
 8002060:	f5b2 5f80 	cmp.w	r2, #4096	; 0x1000
 8002064:	d06e      	beq.n	8002144 <HAL_UART_IRQHandler+0x240>
      huart->Instance->DR = (uint8_t)(*huart->pTxBuffPtr++ & (uint8_t)0x00FF);
 8002066:	6a22      	ldr	r2, [r4, #32]
 8002068:	1c51      	adds	r1, r2, #1
 800206a:	6221      	str	r1, [r4, #32]
 800206c:	7812      	ldrb	r2, [r2, #0]
 800206e:	605a      	str	r2, [r3, #4]
    if (--huart->TxXferCount == 0U)
 8002070:	8ce2      	ldrh	r2, [r4, #38]	; 0x26
 8002072:	3a01      	subs	r2, #1
 8002074:	b292      	uxth	r2, r2
 8002076:	84e2      	strh	r2, [r4, #38]	; 0x26
 8002078:	2a00      	cmp	r2, #0
 800207a:	f47f af5e 	bne.w	8001f3a <HAL_UART_IRQHandler+0x36>
      __HAL_UART_DISABLE_IT(huart, UART_IT_TXE);
 800207e:	68da      	ldr	r2, [r3, #12]
 8002080:	f022 0280 	bic.w	r2, r2, #128	; 0x80
 8002084:	60da      	str	r2, [r3, #12]
      __HAL_UART_ENABLE_IT(huart, UART_IT_TC);
 8002086:	68da      	ldr	r2, [r3, #12]
 8002088:	f042 0240 	orr.w	r2, r2, #64	; 0x40
 800208c:	60da      	str	r2, [r3, #12]
 800208e:	e754      	b.n	8001f3a <HAL_UART_IRQHandler+0x36>
  huart->gState = HAL_UART_STATE_READY;
 8002090:	2120      	movs	r1, #32
  __HAL_UART_DISABLE_IT(huart, UART_IT_TC);
 8002092:	68da      	ldr	r2, [r3, #12]
  HAL_UART_TxCpltCallback(huart);
 8002094:	4620      	mov	r0, r4
  __HAL_UART_DISABLE_IT(huart, UART_IT_TC);
 8002096:	f022 0240 	bic.w	r2, r2, #64	; 0x40
 800209a:	60da      	str	r2, [r3, #12]
  huart->gState = HAL_UART_STATE_READY;
 800209c:	f884 103d 	strb.w	r1, [r4, #61]	; 0x3d
  HAL_UART_TxCpltCallback(huart);
 80020a0:	f7ff fec6 	bl	8001e30 <HAL_UART_TxCpltCallback>
    return;
 80020a4:	e749      	b.n	8001f3a <HAL_UART_IRQHandler+0x36>
  CLEAR_BIT(huart->Instance->CR1, (USART_CR1_RXNEIE | USART_CR1_PEIE));
 80020a6:	68da      	ldr	r2, [r3, #12]
 80020a8:	f422 7290 	bic.w	r2, r2, #288	; 0x120
 80020ac:	60da      	str	r2, [r3, #12]
  CLEAR_BIT(huart->Instance->CR3, USART_CR3_EIE);
 80020ae:	695a      	ldr	r2, [r3, #20]
 80020b0:	f022 0201 	bic.w	r2, r2, #1
 80020b4:	615a      	str	r2, [r3, #20]
  if (huart->ReceptionType == HAL_UART_RECEPTION_TOIDLE)
 80020b6:	6b22      	ldr	r2, [r4, #48]	; 0x30
 80020b8:	2a01      	cmp	r2, #1
 80020ba:	d103      	bne.n	80020c4 <HAL_UART_IRQHandler+0x1c0>
    CLEAR_BIT(huart->Instance->CR1, USART_CR1_IDLEIE);
 80020bc:	68da      	ldr	r2, [r3, #12]
 80020be:	f022 0210 	bic.w	r2, r2, #16
 80020c2:	60da      	str	r2, [r3, #12]
  huart->ReceptionType = HAL_UART_RECEPTION_STANDARD;
 80020c4:	2200      	movs	r2, #0
  huart->RxState = HAL_UART_STATE_READY;
 80020c6:	2120      	movs	r1, #32
 80020c8:	f884 103e 	strb.w	r1, [r4, #62]	; 0x3e
  huart->ReceptionType = HAL_UART_RECEPTION_STANDARD;
 80020cc:	6322      	str	r2, [r4, #48]	; 0x30
        if (HAL_IS_BIT_SET(huart->Instance->CR3, USART_CR3_DMAR))
 80020ce:	695a      	ldr	r2, [r3, #20]
 80020d0:	0656      	lsls	r6, r2, #25
 80020d2:	d512      	bpl.n	80020fa <HAL_UART_IRQHandler+0x1f6>
          CLEAR_BIT(huart->Instance->CR3, USART_CR3_DMAR);
 80020d4:	695a      	ldr	r2, [r3, #20]
          if (huart->hdmarx != NULL)
 80020d6:	6ba0      	ldr	r0, [r4, #56]	; 0x38
          CLEAR_BIT(huart->Instance->CR3, USART_CR3_DMAR);
 80020d8:	f022 0240 	bic.w	r2, r2, #64	; 0x40
 80020dc:	615a      	str	r2, [r3, #20]
          if (huart->hdmarx != NULL)
 80020de:	b160      	cbz	r0, 80020fa <HAL_UART_IRQHandler+0x1f6>
            huart->hdmarx->XferAbortCallback = UART_DMAAbortOnError;
 80020e0:	4b1e      	ldr	r3, [pc, #120]	; (800215c <HAL_UART_IRQHandler+0x258>)
 80020e2:	6343      	str	r3, [r0, #52]	; 0x34
            if (HAL_DMA_Abort_IT(huart->hdmarx) != HAL_OK)
 80020e4:	f7fe fffe 	bl	80010e4 <HAL_DMA_Abort_IT>
 80020e8:	2800      	cmp	r0, #0
 80020ea:	f43f af26 	beq.w	8001f3a <HAL_UART_IRQHandler+0x36>
              huart->hdmarx->XferAbortCallback(huart->hdmarx);
 80020ee:	6ba0      	ldr	r0, [r4, #56]	; 0x38
 80020f0:	6b43      	ldr	r3, [r0, #52]	; 0x34
}
 80020f2:	b002      	add	sp, #8
 80020f4:	e8bd 4070 	ldmia.w	sp!, {r4, r5, r6, lr}
              huart->hdmarx->XferAbortCallback(huart->hdmarx);
 80020f8:	4718      	bx	r3
            HAL_UART_ErrorCallback(huart);
 80020fa:	4620      	mov	r0, r4
 80020fc:	f7ff fe9a 	bl	8001e34 <HAL_UART_ErrorCallback>
 8002100:	e71b      	b.n	8001f3a <HAL_UART_IRQHandler+0x36>
      uint16_t nb_rx_data = huart->RxXferSize - huart->RxXferCount;
 8002102:	8de0      	ldrh	r0, [r4, #46]	; 0x2e
      if (  (huart->RxXferCount > 0U)
 8002104:	8de1      	ldrh	r1, [r4, #46]	; 0x2e
      uint16_t nb_rx_data = huart->RxXferSize - huart->RxXferCount;
 8002106:	b280      	uxth	r0, r0
      if (  (huart->RxXferCount > 0U)
 8002108:	b289      	uxth	r1, r1
 800210a:	2900      	cmp	r1, #0
 800210c:	f43f af15 	beq.w	8001f3a <HAL_UART_IRQHandler+0x36>
      uint16_t nb_rx_data = huart->RxXferSize - huart->RxXferCount;
 8002110:	8da1      	ldrh	r1, [r4, #44]	; 0x2c
 8002112:	1a08      	subs	r0, r1, r0
 8002114:	b281      	uxth	r1, r0
          &&(nb_rx_data > 0U) )
 8002116:	2900      	cmp	r1, #0
 8002118:	f43f af0f 	beq.w	8001f3a <HAL_UART_IRQHandler+0x36>
        huart->RxState = HAL_UART_STATE_READY;
 800211c:	2520      	movs	r5, #32
        CLEAR_BIT(huart->Instance->CR1, (USART_CR1_RXNEIE | USART_CR1_PEIE));
 800211e:	68d8      	ldr	r0, [r3, #12]
 8002120:	f420 7090 	bic.w	r0, r0, #288	; 0x120
 8002124:	60d8      	str	r0, [r3, #12]
        CLEAR_BIT(huart->Instance->CR3, USART_CR3_EIE);
 8002126:	6958      	ldr	r0, [r3, #20]
 8002128:	f020 0001 	bic.w	r0, r0, #1
 800212c:	6158      	str	r0, [r3, #20]
        huart->RxState = HAL_UART_STATE_READY;
 800212e:	f884 503e 	strb.w	r5, [r4, #62]	; 0x3e
        huart->ReceptionType = HAL_UART_RECEPTION_STANDARD;
 8002132:	6322      	str	r2, [r4, #48]	; 0x30
        CLEAR_BIT(huart->Instance->CR1, USART_CR1_IDLEIE);
 8002134:	68da      	ldr	r2, [r3, #12]
        HAL_UARTEx_RxEventCallback(huart, nb_rx_data);
 8002136:	4620      	mov	r0, r4
        CLEAR_BIT(huart->Instance->CR1, USART_CR1_IDLEIE);
 8002138:	f022 0210 	bic.w	r2, r2, #16
 800213c:	60da      	str	r2, [r3, #12]
        HAL_UARTEx_RxEventCallback(huart, nb_rx_data);
 800213e:	f7ff fe83 	bl	8001e48 <HAL_UARTEx_RxEventCallback>
 8002142:	e6fa      	b.n	8001f3a <HAL_UART_IRQHandler+0x36>
    if ((huart->Init.WordLength == UART_WORDLENGTH_9B) && (huart->Init.Parity == UART_PARITY_NONE))
 8002144:	6922      	ldr	r2, [r4, #16]
 8002146:	2a00      	cmp	r2, #0
 8002148:	d18d      	bne.n	8002066 <HAL_UART_IRQHandler+0x162>
      huart->Instance->DR = (uint16_t)(*tmp & (uint16_t)0x01FF);
 800214a:	6a22      	ldr	r2, [r4, #32]
 800214c:	f832 1b02 	ldrh.w	r1, [r2], #2
 8002150:	f3c1 0108 	ubfx	r1, r1, #0, #9
 8002154:	6059      	str	r1, [r3, #4]
      huart->pTxBuffPtr += 2U;
 8002156:	6222      	str	r2, [r4, #32]
 8002158:	e78a      	b.n	8002070 <HAL_UART_IRQHandler+0x16c>
 800215a:	bf00      	nop
 800215c:	08001e39 	.word	0x08001e39

08002160 <__libc_init_array>:
 8002160:	b570      	push	{r4, r5, r6, lr}
 8002162:	2600      	movs	r6, #0
 8002164:	4d0c      	ldr	r5, [pc, #48]	; (8002198 <__libc_init_array+0x38>)
 8002166:	4c0d      	ldr	r4, [pc, #52]	; (800219c <__libc_init_array+0x3c>)
 8002168:	1b64      	subs	r4, r4, r5
 800216a:	10a4      	asrs	r4, r4, #2
 800216c:	42a6      	cmp	r6, r4
 800216e:	d109      	bne.n	8002184 <__libc_init_array+0x24>
 8002170:	f000 f81a 	bl	80021a8 <_init>
 8002174:	2600      	movs	r6, #0
 8002176:	4d0a      	ldr	r5, [pc, #40]	; (80021a0 <__libc_init_array+0x40>)
 8002178:	4c0a      	ldr	r4, [pc, #40]	; (80021a4 <__libc_init_array+0x44>)
 800217a:	1b64      	subs	r4, r4, r5
 800217c:	10a4      	asrs	r4, r4, #2
 800217e:	42a6      	cmp	r6, r4
 8002180:	d105      	bne.n	800218e <__libc_init_array+0x2e>
 8002182:	bd70      	pop	{r4, r5, r6, pc}
 8002184:	f855 3b04 	ldr.w	r3, [r5], #4
 8002188:	4798      	blx	r3
 800218a:	3601      	adds	r6, #1
 800218c:	e7ee      	b.n	800216c <__libc_init_array+0xc>
 800218e:	f855 3b04 	ldr.w	r3, [r5], #4
 8002192:	4798      	blx	r3
 8002194:	3601      	adds	r6, #1
 8002196:	e7f2      	b.n	800217e <__libc_init_array+0x1e>
 8002198:	080024f4 	.word	0x080024f4
 800219c:	080024f4 	.word	0x080024f4
 80021a0:	080024f4 	.word	0x080024f4
 80021a4:	080024f8 	.word	0x080024f8

080021a8 <_init>:
 80021a8:	b5f8      	push	{r3, r4, r5, r6, r7, lr}
 80021aa:	bf00      	nop
 80021ac:	bcf8      	pop	{r3, r4, r5, r6, r7}
 80021ae:	bc08      	pop	{r3}
 80021b0:	469e      	mov	lr, r3
 80021b2:	4770      	bx	lr

080021b4 <_fini>:
 80021b4:	b5f8      	push	{r3, r4, r5, r6, r7, lr}
 80021b6:	bf00      	nop
 80021b8:	bcf8      	pop	{r3, r4, r5, r6, r7}
 80021ba:	bc08      	pop	{r3}
 80021bc:	469e      	mov	lr, r3
 80021be:	4770      	bx	lr
